ARM GAS  C:\Users\Surface\AppData\Local\Temp\cc4KC3wL.s 			page 1


   1              		.syntax unified
   2              		.cpu cortex-m0
   3              		.fpu softvfp
   4              		.eabi_attribute 20, 1
   5              		.eabi_attribute 21, 1
   6              		.eabi_attribute 23, 3
   7              		.eabi_attribute 24, 1
   8              		.eabi_attribute 25, 1
   9              		.eabi_attribute 26, 1
  10              		.eabi_attribute 30, 1
  11              		.eabi_attribute 34, 0
  12              		.eabi_attribute 18, 4
  13              		.thumb
  14              		.syntax unified
  15              		.file	"ISR_Function.c"
  16              		.text
  17              	.Ltext0:
  18              		.cfi_sections	.debug_frame
  19              		.section	.text.ISR_Function_Interrupt,"ax",%progbits
  20              		.align	2
  21              		.global	ISR_Function_Interrupt
  22              		.code	16
  23              		.thumb_func
  24              		.type	ISR_Function_Interrupt, %function
  25              	ISR_Function_Interrupt:
  26              	.LFB38:
  27              		.file 1 "Generated_Source\\PSoC4\\ISR_Function.c"
   1:Generated_Source\PSoC4/ISR_Function.c **** /*******************************************************************************
   2:Generated_Source\PSoC4/ISR_Function.c **** * File Name: ISR_Function.c  
   3:Generated_Source\PSoC4/ISR_Function.c **** * Version 1.71
   4:Generated_Source\PSoC4/ISR_Function.c **** *
   5:Generated_Source\PSoC4/ISR_Function.c **** *  Description:
   6:Generated_Source\PSoC4/ISR_Function.c **** *   API for controlling the state of an interrupt.
   7:Generated_Source\PSoC4/ISR_Function.c **** *
   8:Generated_Source\PSoC4/ISR_Function.c **** *
   9:Generated_Source\PSoC4/ISR_Function.c **** *  Note:
  10:Generated_Source\PSoC4/ISR_Function.c **** *
  11:Generated_Source\PSoC4/ISR_Function.c **** ********************************************************************************
  12:Generated_Source\PSoC4/ISR_Function.c **** * Copyright 2008-2015, Cypress Semiconductor Corporation.  All rights reserved.
  13:Generated_Source\PSoC4/ISR_Function.c **** * You may use this file only in accordance with the license, terms, conditions, 
  14:Generated_Source\PSoC4/ISR_Function.c **** * disclaimers, and limitations in the end user license agreement accompanying 
  15:Generated_Source\PSoC4/ISR_Function.c **** * the software package with which this file was provided.
  16:Generated_Source\PSoC4/ISR_Function.c **** *******************************************************************************/
  17:Generated_Source\PSoC4/ISR_Function.c **** 
  18:Generated_Source\PSoC4/ISR_Function.c **** 
  19:Generated_Source\PSoC4/ISR_Function.c **** #include <cydevice_trm.h>
  20:Generated_Source\PSoC4/ISR_Function.c **** #include <CyLib.h>
  21:Generated_Source\PSoC4/ISR_Function.c **** #include <ISR_Function.h>
  22:Generated_Source\PSoC4/ISR_Function.c **** #include "cyapicallbacks.h"
  23:Generated_Source\PSoC4/ISR_Function.c **** 
  24:Generated_Source\PSoC4/ISR_Function.c **** #if !defined(ISR_Function__REMOVED) /* Check for removal by optimization */
  25:Generated_Source\PSoC4/ISR_Function.c **** 
  26:Generated_Source\PSoC4/ISR_Function.c **** /*******************************************************************************
  27:Generated_Source\PSoC4/ISR_Function.c **** *  Place your includes, defines and code here 
  28:Generated_Source\PSoC4/ISR_Function.c **** ********************************************************************************/
  29:Generated_Source\PSoC4/ISR_Function.c **** /* `#START ISR_Function_intc` */
  30:Generated_Source\PSoC4/ISR_Function.c ****     #include "project.h"
ARM GAS  C:\Users\Surface\AppData\Local\Temp\cc4KC3wL.s 			page 2


  31:Generated_Source\PSoC4/ISR_Function.c ****     uint8_t LED_Status=0;
  32:Generated_Source\PSoC4/ISR_Function.c **** /* `#END` */
  33:Generated_Source\PSoC4/ISR_Function.c **** 
  34:Generated_Source\PSoC4/ISR_Function.c **** extern cyisraddress CyRamVectors[CYINT_IRQ_BASE + CY_NUM_INTERRUPTS];
  35:Generated_Source\PSoC4/ISR_Function.c **** 
  36:Generated_Source\PSoC4/ISR_Function.c **** /* Declared in startup, used to set unused interrupts to. */
  37:Generated_Source\PSoC4/ISR_Function.c **** CY_ISR_PROTO(IntDefaultHandler);
  38:Generated_Source\PSoC4/ISR_Function.c **** 
  39:Generated_Source\PSoC4/ISR_Function.c **** 
  40:Generated_Source\PSoC4/ISR_Function.c **** /*******************************************************************************
  41:Generated_Source\PSoC4/ISR_Function.c **** * Function Name: ISR_Function_Start
  42:Generated_Source\PSoC4/ISR_Function.c **** ********************************************************************************
  43:Generated_Source\PSoC4/ISR_Function.c **** *
  44:Generated_Source\PSoC4/ISR_Function.c **** * Summary:
  45:Generated_Source\PSoC4/ISR_Function.c **** *  Set up the interrupt and enable it. This function disables the interrupt, 
  46:Generated_Source\PSoC4/ISR_Function.c **** *  sets the default interrupt vector, sets the priority from the value in the
  47:Generated_Source\PSoC4/ISR_Function.c **** *  Design Wide Resources Interrupt Editor, then enables the interrupt to the 
  48:Generated_Source\PSoC4/ISR_Function.c **** *  interrupt controller.
  49:Generated_Source\PSoC4/ISR_Function.c **** *
  50:Generated_Source\PSoC4/ISR_Function.c **** * Parameters:  
  51:Generated_Source\PSoC4/ISR_Function.c **** *   None
  52:Generated_Source\PSoC4/ISR_Function.c **** *
  53:Generated_Source\PSoC4/ISR_Function.c **** * Return:
  54:Generated_Source\PSoC4/ISR_Function.c **** *   None
  55:Generated_Source\PSoC4/ISR_Function.c **** *
  56:Generated_Source\PSoC4/ISR_Function.c **** *******************************************************************************/
  57:Generated_Source\PSoC4/ISR_Function.c **** void ISR_Function_Start(void)
  58:Generated_Source\PSoC4/ISR_Function.c **** {
  59:Generated_Source\PSoC4/ISR_Function.c ****     /* For all we know the interrupt is active. */
  60:Generated_Source\PSoC4/ISR_Function.c ****     ISR_Function_Disable();
  61:Generated_Source\PSoC4/ISR_Function.c **** 
  62:Generated_Source\PSoC4/ISR_Function.c ****     /* Set the ISR to point to the ISR_Function Interrupt. */
  63:Generated_Source\PSoC4/ISR_Function.c ****     ISR_Function_SetVector(&ISR_Function_Interrupt);
  64:Generated_Source\PSoC4/ISR_Function.c **** 
  65:Generated_Source\PSoC4/ISR_Function.c ****     /* Set the priority. */
  66:Generated_Source\PSoC4/ISR_Function.c ****     ISR_Function_SetPriority((uint8)ISR_Function_INTC_PRIOR_NUMBER);
  67:Generated_Source\PSoC4/ISR_Function.c **** 
  68:Generated_Source\PSoC4/ISR_Function.c ****     /* Enable it. */
  69:Generated_Source\PSoC4/ISR_Function.c ****     ISR_Function_Enable();
  70:Generated_Source\PSoC4/ISR_Function.c **** }
  71:Generated_Source\PSoC4/ISR_Function.c **** 
  72:Generated_Source\PSoC4/ISR_Function.c **** 
  73:Generated_Source\PSoC4/ISR_Function.c **** /*******************************************************************************
  74:Generated_Source\PSoC4/ISR_Function.c **** * Function Name: ISR_Function_StartEx
  75:Generated_Source\PSoC4/ISR_Function.c **** ********************************************************************************
  76:Generated_Source\PSoC4/ISR_Function.c **** *
  77:Generated_Source\PSoC4/ISR_Function.c **** * Summary:
  78:Generated_Source\PSoC4/ISR_Function.c **** *  Sets up the interrupt and enables it. This function disables the interrupt,
  79:Generated_Source\PSoC4/ISR_Function.c **** *  sets the interrupt vector based on the address passed in, sets the priority 
  80:Generated_Source\PSoC4/ISR_Function.c **** *  from the value in the Design Wide Resources Interrupt Editor, then enables 
  81:Generated_Source\PSoC4/ISR_Function.c **** *  the interrupt to the interrupt controller.
  82:Generated_Source\PSoC4/ISR_Function.c **** *  
  83:Generated_Source\PSoC4/ISR_Function.c **** *  When defining ISR functions, the CY_ISR and CY_ISR_PROTO macros should be 
  84:Generated_Source\PSoC4/ISR_Function.c **** *  used to provide consistent definition across compilers:
  85:Generated_Source\PSoC4/ISR_Function.c **** *  
  86:Generated_Source\PSoC4/ISR_Function.c **** *  Function definition example:
  87:Generated_Source\PSoC4/ISR_Function.c **** *   CY_ISR(MyISR)
ARM GAS  C:\Users\Surface\AppData\Local\Temp\cc4KC3wL.s 			page 3


  88:Generated_Source\PSoC4/ISR_Function.c **** *   {
  89:Generated_Source\PSoC4/ISR_Function.c **** *   }
  90:Generated_Source\PSoC4/ISR_Function.c **** *   Function prototype example:
  91:Generated_Source\PSoC4/ISR_Function.c **** *   CY_ISR_PROTO(MyISR);
  92:Generated_Source\PSoC4/ISR_Function.c **** *
  93:Generated_Source\PSoC4/ISR_Function.c **** * Parameters:  
  94:Generated_Source\PSoC4/ISR_Function.c **** *   address: Address of the ISR to set in the interrupt vector table.
  95:Generated_Source\PSoC4/ISR_Function.c **** *
  96:Generated_Source\PSoC4/ISR_Function.c **** * Return:
  97:Generated_Source\PSoC4/ISR_Function.c **** *   None
  98:Generated_Source\PSoC4/ISR_Function.c **** *
  99:Generated_Source\PSoC4/ISR_Function.c **** *******************************************************************************/
 100:Generated_Source\PSoC4/ISR_Function.c **** void ISR_Function_StartEx(cyisraddress address)
 101:Generated_Source\PSoC4/ISR_Function.c **** {
 102:Generated_Source\PSoC4/ISR_Function.c ****     /* For all we know the interrupt is active. */
 103:Generated_Source\PSoC4/ISR_Function.c ****     ISR_Function_Disable();
 104:Generated_Source\PSoC4/ISR_Function.c **** 
 105:Generated_Source\PSoC4/ISR_Function.c ****     /* Set the ISR to point to the ISR_Function Interrupt. */
 106:Generated_Source\PSoC4/ISR_Function.c ****     ISR_Function_SetVector(address);
 107:Generated_Source\PSoC4/ISR_Function.c **** 
 108:Generated_Source\PSoC4/ISR_Function.c ****     /* Set the priority. */
 109:Generated_Source\PSoC4/ISR_Function.c ****     ISR_Function_SetPriority((uint8)ISR_Function_INTC_PRIOR_NUMBER);
 110:Generated_Source\PSoC4/ISR_Function.c **** 
 111:Generated_Source\PSoC4/ISR_Function.c ****     /* Enable it. */
 112:Generated_Source\PSoC4/ISR_Function.c ****     ISR_Function_Enable();
 113:Generated_Source\PSoC4/ISR_Function.c **** }
 114:Generated_Source\PSoC4/ISR_Function.c **** 
 115:Generated_Source\PSoC4/ISR_Function.c **** 
 116:Generated_Source\PSoC4/ISR_Function.c **** /*******************************************************************************
 117:Generated_Source\PSoC4/ISR_Function.c **** * Function Name: ISR_Function_Stop
 118:Generated_Source\PSoC4/ISR_Function.c **** ********************************************************************************
 119:Generated_Source\PSoC4/ISR_Function.c **** *
 120:Generated_Source\PSoC4/ISR_Function.c **** * Summary:
 121:Generated_Source\PSoC4/ISR_Function.c **** *   Disables and removes the interrupt.
 122:Generated_Source\PSoC4/ISR_Function.c **** *
 123:Generated_Source\PSoC4/ISR_Function.c **** * Parameters:  
 124:Generated_Source\PSoC4/ISR_Function.c **** *   None
 125:Generated_Source\PSoC4/ISR_Function.c **** *
 126:Generated_Source\PSoC4/ISR_Function.c **** * Return:
 127:Generated_Source\PSoC4/ISR_Function.c **** *   None
 128:Generated_Source\PSoC4/ISR_Function.c **** *
 129:Generated_Source\PSoC4/ISR_Function.c **** *******************************************************************************/
 130:Generated_Source\PSoC4/ISR_Function.c **** void ISR_Function_Stop(void)
 131:Generated_Source\PSoC4/ISR_Function.c **** {
 132:Generated_Source\PSoC4/ISR_Function.c ****     /* Disable this interrupt. */
 133:Generated_Source\PSoC4/ISR_Function.c ****     ISR_Function_Disable();
 134:Generated_Source\PSoC4/ISR_Function.c **** 
 135:Generated_Source\PSoC4/ISR_Function.c ****     /* Set the ISR to point to the passive one. */
 136:Generated_Source\PSoC4/ISR_Function.c ****     ISR_Function_SetVector(&IntDefaultHandler);
 137:Generated_Source\PSoC4/ISR_Function.c **** }
 138:Generated_Source\PSoC4/ISR_Function.c **** 
 139:Generated_Source\PSoC4/ISR_Function.c **** 
 140:Generated_Source\PSoC4/ISR_Function.c **** /*******************************************************************************
 141:Generated_Source\PSoC4/ISR_Function.c **** * Function Name: ISR_Function_Interrupt
 142:Generated_Source\PSoC4/ISR_Function.c **** ********************************************************************************
 143:Generated_Source\PSoC4/ISR_Function.c **** *
 144:Generated_Source\PSoC4/ISR_Function.c **** * Summary:
ARM GAS  C:\Users\Surface\AppData\Local\Temp\cc4KC3wL.s 			page 4


 145:Generated_Source\PSoC4/ISR_Function.c **** *   The default Interrupt Service Routine for ISR_Function.
 146:Generated_Source\PSoC4/ISR_Function.c **** *
 147:Generated_Source\PSoC4/ISR_Function.c **** *   Add custom code between the START and END comments to keep the next version
 148:Generated_Source\PSoC4/ISR_Function.c **** *   of this file from over-writing your code.
 149:Generated_Source\PSoC4/ISR_Function.c **** *
 150:Generated_Source\PSoC4/ISR_Function.c **** *   Note You may use either the default ISR by using this API, or you may define
 151:Generated_Source\PSoC4/ISR_Function.c **** *   your own separate ISR through ISR_StartEx().
 152:Generated_Source\PSoC4/ISR_Function.c **** *
 153:Generated_Source\PSoC4/ISR_Function.c **** * Parameters:  
 154:Generated_Source\PSoC4/ISR_Function.c **** *   None
 155:Generated_Source\PSoC4/ISR_Function.c **** *
 156:Generated_Source\PSoC4/ISR_Function.c **** * Return:
 157:Generated_Source\PSoC4/ISR_Function.c **** *   None
 158:Generated_Source\PSoC4/ISR_Function.c **** *
 159:Generated_Source\PSoC4/ISR_Function.c **** *******************************************************************************/
 160:Generated_Source\PSoC4/ISR_Function.c **** CY_ISR(ISR_Function_Interrupt)
 161:Generated_Source\PSoC4/ISR_Function.c **** {
  28              		.loc 1 161 0
  29              		.cfi_startproc
  30              		@ args = 0, pretend = 0, frame = 0
  31              		@ frame_needed = 0, uses_anonymous_args = 0
  32              		@ link register save eliminated.
 162:Generated_Source\PSoC4/ISR_Function.c ****     #ifdef ISR_Function_INTERRUPT_INTERRUPT_CALLBACK
 163:Generated_Source\PSoC4/ISR_Function.c ****         ISR_Function_Interrupt_InterruptCallback();
 164:Generated_Source\PSoC4/ISR_Function.c ****     #endif /* ISR_Function_INTERRUPT_INTERRUPT_CALLBACK */ 
 165:Generated_Source\PSoC4/ISR_Function.c **** 
 166:Generated_Source\PSoC4/ISR_Function.c ****     /*  Place your Interrupt code here. */
 167:Generated_Source\PSoC4/ISR_Function.c ****     /* `#START ISR_Function_Interrupt` */
 168:Generated_Source\PSoC4/ISR_Function.c **** 
 169:Generated_Source\PSoC4/ISR_Function.c ****     /* `#END` */
 170:Generated_Source\PSoC4/ISR_Function.c **** }
  33              		.loc 1 170 0
  34              		@ sp needed
  35 0000 7047     		bx	lr
  36              		.cfi_endproc
  37              	.LFE38:
  38              		.size	ISR_Function_Interrupt, .-ISR_Function_Interrupt
  39 0002 C046     		.section	.text.ISR_Function_SetVector,"ax",%progbits
  40              		.align	2
  41              		.global	ISR_Function_SetVector
  42              		.code	16
  43              		.thumb_func
  44              		.type	ISR_Function_SetVector, %function
  45              	ISR_Function_SetVector:
  46              	.LFB39:
 171:Generated_Source\PSoC4/ISR_Function.c **** 
 172:Generated_Source\PSoC4/ISR_Function.c **** 
 173:Generated_Source\PSoC4/ISR_Function.c **** /*******************************************************************************
 174:Generated_Source\PSoC4/ISR_Function.c **** * Function Name: ISR_Function_SetVector
 175:Generated_Source\PSoC4/ISR_Function.c **** ********************************************************************************
 176:Generated_Source\PSoC4/ISR_Function.c **** *
 177:Generated_Source\PSoC4/ISR_Function.c **** * Summary:
 178:Generated_Source\PSoC4/ISR_Function.c **** *   Change the ISR vector for the Interrupt. Note calling ISR_Function_Start
 179:Generated_Source\PSoC4/ISR_Function.c **** *   will override any effect this method would have had. To set the vector 
 180:Generated_Source\PSoC4/ISR_Function.c **** *   before the component has been started use ISR_Function_StartEx instead.
 181:Generated_Source\PSoC4/ISR_Function.c **** * 
 182:Generated_Source\PSoC4/ISR_Function.c **** *   When defining ISR functions, the CY_ISR and CY_ISR_PROTO macros should be 
ARM GAS  C:\Users\Surface\AppData\Local\Temp\cc4KC3wL.s 			page 5


 183:Generated_Source\PSoC4/ISR_Function.c **** *   used to provide consistent definition across compilers:
 184:Generated_Source\PSoC4/ISR_Function.c **** *
 185:Generated_Source\PSoC4/ISR_Function.c **** *   Function definition example:
 186:Generated_Source\PSoC4/ISR_Function.c **** *   CY_ISR(MyISR)
 187:Generated_Source\PSoC4/ISR_Function.c **** *   {
 188:Generated_Source\PSoC4/ISR_Function.c **** *   }
 189:Generated_Source\PSoC4/ISR_Function.c **** *
 190:Generated_Source\PSoC4/ISR_Function.c **** *   Function prototype example:
 191:Generated_Source\PSoC4/ISR_Function.c **** *     CY_ISR_PROTO(MyISR);
 192:Generated_Source\PSoC4/ISR_Function.c **** *
 193:Generated_Source\PSoC4/ISR_Function.c **** * Parameters:
 194:Generated_Source\PSoC4/ISR_Function.c **** *   address: Address of the ISR to set in the interrupt vector table.
 195:Generated_Source\PSoC4/ISR_Function.c **** *
 196:Generated_Source\PSoC4/ISR_Function.c **** * Return:
 197:Generated_Source\PSoC4/ISR_Function.c **** *   None
 198:Generated_Source\PSoC4/ISR_Function.c **** *
 199:Generated_Source\PSoC4/ISR_Function.c **** *******************************************************************************/
 200:Generated_Source\PSoC4/ISR_Function.c **** void ISR_Function_SetVector(cyisraddress address)
 201:Generated_Source\PSoC4/ISR_Function.c **** {
  47              		.loc 1 201 0
  48              		.cfi_startproc
  49              		@ args = 0, pretend = 0, frame = 0
  50              		@ frame_needed = 0, uses_anonymous_args = 0
  51              		@ link register save eliminated.
  52              	.LVL0:
 202:Generated_Source\PSoC4/ISR_Function.c ****     CyRamVectors[CYINT_IRQ_BASE + ISR_Function__INTC_NUMBER] = address;
  53              		.loc 1 202 0
  54 0000 8423     		movs	r3, #132
  55 0002 014A     		ldr	r2, .L3
  56 0004 D050     		str	r0, [r2, r3]
 203:Generated_Source\PSoC4/ISR_Function.c **** }
  57              		.loc 1 203 0
  58              		@ sp needed
  59 0006 7047     		bx	lr
  60              	.L4:
  61              		.align	2
  62              	.L3:
  63 0008 00000000 		.word	CyRamVectors
  64              		.cfi_endproc
  65              	.LFE39:
  66              		.size	ISR_Function_SetVector, .-ISR_Function_SetVector
  67              		.section	.text.ISR_Function_GetVector,"ax",%progbits
  68              		.align	2
  69              		.global	ISR_Function_GetVector
  70              		.code	16
  71              		.thumb_func
  72              		.type	ISR_Function_GetVector, %function
  73              	ISR_Function_GetVector:
  74              	.LFB40:
 204:Generated_Source\PSoC4/ISR_Function.c **** 
 205:Generated_Source\PSoC4/ISR_Function.c **** 
 206:Generated_Source\PSoC4/ISR_Function.c **** /*******************************************************************************
 207:Generated_Source\PSoC4/ISR_Function.c **** * Function Name: ISR_Function_GetVector
 208:Generated_Source\PSoC4/ISR_Function.c **** ********************************************************************************
 209:Generated_Source\PSoC4/ISR_Function.c **** *
 210:Generated_Source\PSoC4/ISR_Function.c **** * Summary:
 211:Generated_Source\PSoC4/ISR_Function.c **** *   Gets the "address" of the current ISR vector for the Interrupt.
ARM GAS  C:\Users\Surface\AppData\Local\Temp\cc4KC3wL.s 			page 6


 212:Generated_Source\PSoC4/ISR_Function.c **** *
 213:Generated_Source\PSoC4/ISR_Function.c **** * Parameters:
 214:Generated_Source\PSoC4/ISR_Function.c **** *   None
 215:Generated_Source\PSoC4/ISR_Function.c **** *
 216:Generated_Source\PSoC4/ISR_Function.c **** * Return:
 217:Generated_Source\PSoC4/ISR_Function.c **** *   Address of the ISR in the interrupt vector table.
 218:Generated_Source\PSoC4/ISR_Function.c **** *
 219:Generated_Source\PSoC4/ISR_Function.c **** *******************************************************************************/
 220:Generated_Source\PSoC4/ISR_Function.c **** cyisraddress ISR_Function_GetVector(void)
 221:Generated_Source\PSoC4/ISR_Function.c **** {
  75              		.loc 1 221 0
  76              		.cfi_startproc
  77              		@ args = 0, pretend = 0, frame = 0
  78              		@ frame_needed = 0, uses_anonymous_args = 0
  79              		@ link register save eliminated.
 222:Generated_Source\PSoC4/ISR_Function.c ****     return CyRamVectors[CYINT_IRQ_BASE + ISR_Function__INTC_NUMBER];
  80              		.loc 1 222 0
  81 0000 8423     		movs	r3, #132
  82 0002 014A     		ldr	r2, .L6
  83 0004 D058     		ldr	r0, [r2, r3]
 223:Generated_Source\PSoC4/ISR_Function.c **** }
  84              		.loc 1 223 0
  85              		@ sp needed
  86 0006 7047     		bx	lr
  87              	.L7:
  88              		.align	2
  89              	.L6:
  90 0008 00000000 		.word	CyRamVectors
  91              		.cfi_endproc
  92              	.LFE40:
  93              		.size	ISR_Function_GetVector, .-ISR_Function_GetVector
  94              		.section	.text.ISR_Function_SetPriority,"ax",%progbits
  95              		.align	2
  96              		.global	ISR_Function_SetPriority
  97              		.code	16
  98              		.thumb_func
  99              		.type	ISR_Function_SetPriority, %function
 100              	ISR_Function_SetPriority:
 101              	.LFB41:
 224:Generated_Source\PSoC4/ISR_Function.c **** 
 225:Generated_Source\PSoC4/ISR_Function.c **** 
 226:Generated_Source\PSoC4/ISR_Function.c **** /*******************************************************************************
 227:Generated_Source\PSoC4/ISR_Function.c **** * Function Name: ISR_Function_SetPriority
 228:Generated_Source\PSoC4/ISR_Function.c **** ********************************************************************************
 229:Generated_Source\PSoC4/ISR_Function.c **** *
 230:Generated_Source\PSoC4/ISR_Function.c **** * Summary:
 231:Generated_Source\PSoC4/ISR_Function.c **** *   Sets the Priority of the Interrupt. 
 232:Generated_Source\PSoC4/ISR_Function.c **** *
 233:Generated_Source\PSoC4/ISR_Function.c **** *   Note calling ISR_Function_Start or ISR_Function_StartEx will 
 234:Generated_Source\PSoC4/ISR_Function.c **** *   override any effect this API would have had. This API should only be called
 235:Generated_Source\PSoC4/ISR_Function.c **** *   after ISR_Function_Start or ISR_Function_StartEx has been called. 
 236:Generated_Source\PSoC4/ISR_Function.c **** *   To set the initial priority for the component, use the Design-Wide Resources
 237:Generated_Source\PSoC4/ISR_Function.c **** *   Interrupt Editor.
 238:Generated_Source\PSoC4/ISR_Function.c **** *
 239:Generated_Source\PSoC4/ISR_Function.c **** *   Note This API has no effect on Non-maskable interrupt NMI).
 240:Generated_Source\PSoC4/ISR_Function.c **** *
 241:Generated_Source\PSoC4/ISR_Function.c **** * Parameters:
ARM GAS  C:\Users\Surface\AppData\Local\Temp\cc4KC3wL.s 			page 7


 242:Generated_Source\PSoC4/ISR_Function.c **** *   priority: Priority of the interrupt, 0 being the highest priority
 243:Generated_Source\PSoC4/ISR_Function.c **** *             PSoC 3 and PSoC 5LP: Priority is from 0 to 7.
 244:Generated_Source\PSoC4/ISR_Function.c **** *             PSoC 4: Priority is from 0 to 3.
 245:Generated_Source\PSoC4/ISR_Function.c **** *
 246:Generated_Source\PSoC4/ISR_Function.c **** * Return:
 247:Generated_Source\PSoC4/ISR_Function.c **** *   None
 248:Generated_Source\PSoC4/ISR_Function.c **** *
 249:Generated_Source\PSoC4/ISR_Function.c **** *******************************************************************************/
 250:Generated_Source\PSoC4/ISR_Function.c **** void ISR_Function_SetPriority(uint8 priority)
 251:Generated_Source\PSoC4/ISR_Function.c **** {
 102              		.loc 1 251 0
 103              		.cfi_startproc
 104              		@ args = 0, pretend = 0, frame = 0
 105              		@ frame_needed = 0, uses_anonymous_args = 0
 106              	.LVL1:
 107 0000 10B5     		push	{r4, lr}
 108              		.cfi_def_cfa_offset 8
 109              		.cfi_offset 4, -8
 110              		.cfi_offset 14, -4
 111 0002 0400     		movs	r4, r0
 112              	.LVL2:
 252:Generated_Source\PSoC4/ISR_Function.c **** 	uint8 interruptState;
 253:Generated_Source\PSoC4/ISR_Function.c ****     uint32 priorityOffset = ((ISR_Function__INTC_NUMBER % 4u) * 8u) + 6u;
 254:Generated_Source\PSoC4/ISR_Function.c ****     
 255:Generated_Source\PSoC4/ISR_Function.c **** 	interruptState = CyEnterCriticalSection();
 113              		.loc 1 255 0
 114 0004 FFF7FEFF 		bl	CyEnterCriticalSection
 115              	.LVL3:
 256:Generated_Source\PSoC4/ISR_Function.c ****     *ISR_Function_INTC_PRIOR = (*ISR_Function_INTC_PRIOR & (uint32)(~(uint32)ISR_Function__INTC_PRI
 116              		.loc 1 256 0
 117 0008 044A     		ldr	r2, .L9
 118 000a 1168     		ldr	r1, [r2]
 119 000c 044B     		ldr	r3, .L9+4
 120 000e 0B40     		ands	r3, r1
 257:Generated_Source\PSoC4/ISR_Function.c ****                                     ((uint32)priority << priorityOffset);
 121              		.loc 1 257 0
 122 0010 A403     		lsls	r4, r4, #14
 256:Generated_Source\PSoC4/ISR_Function.c ****     *ISR_Function_INTC_PRIOR = (*ISR_Function_INTC_PRIOR & (uint32)(~(uint32)ISR_Function__INTC_PRI
 123              		.loc 1 256 0
 124 0012 1C43     		orrs	r4, r3
 125 0014 1460     		str	r4, [r2]
 258:Generated_Source\PSoC4/ISR_Function.c **** 	CyExitCriticalSection(interruptState);
 126              		.loc 1 258 0
 127 0016 FFF7FEFF 		bl	CyExitCriticalSection
 128              	.LVL4:
 259:Generated_Source\PSoC4/ISR_Function.c **** }
 129              		.loc 1 259 0
 130              		@ sp needed
 131 001a 10BD     		pop	{r4, pc}
 132              	.L10:
 133              		.align	2
 134              	.L9:
 135 001c 10E400E0 		.word	-536812528
 136 0020 FF3FFFFF 		.word	-49153
 137              		.cfi_endproc
 138              	.LFE41:
 139              		.size	ISR_Function_SetPriority, .-ISR_Function_SetPriority
ARM GAS  C:\Users\Surface\AppData\Local\Temp\cc4KC3wL.s 			page 8


 140              		.section	.text.ISR_Function_GetPriority,"ax",%progbits
 141              		.align	2
 142              		.global	ISR_Function_GetPriority
 143              		.code	16
 144              		.thumb_func
 145              		.type	ISR_Function_GetPriority, %function
 146              	ISR_Function_GetPriority:
 147              	.LFB42:
 260:Generated_Source\PSoC4/ISR_Function.c **** 
 261:Generated_Source\PSoC4/ISR_Function.c **** 
 262:Generated_Source\PSoC4/ISR_Function.c **** /*******************************************************************************
 263:Generated_Source\PSoC4/ISR_Function.c **** * Function Name: ISR_Function_GetPriority
 264:Generated_Source\PSoC4/ISR_Function.c **** ********************************************************************************
 265:Generated_Source\PSoC4/ISR_Function.c **** *
 266:Generated_Source\PSoC4/ISR_Function.c **** * Summary:
 267:Generated_Source\PSoC4/ISR_Function.c **** *   Gets the Priority of the Interrupt.
 268:Generated_Source\PSoC4/ISR_Function.c **** *
 269:Generated_Source\PSoC4/ISR_Function.c **** * Parameters:
 270:Generated_Source\PSoC4/ISR_Function.c **** *   None
 271:Generated_Source\PSoC4/ISR_Function.c **** *
 272:Generated_Source\PSoC4/ISR_Function.c **** * Return:
 273:Generated_Source\PSoC4/ISR_Function.c **** *   Priority of the interrupt, 0 being the highest priority
 274:Generated_Source\PSoC4/ISR_Function.c **** *    PSoC 3 and PSoC 5LP: Priority is from 0 to 7.
 275:Generated_Source\PSoC4/ISR_Function.c **** *    PSoC 4: Priority is from 0 to 3.
 276:Generated_Source\PSoC4/ISR_Function.c **** *
 277:Generated_Source\PSoC4/ISR_Function.c **** *******************************************************************************/
 278:Generated_Source\PSoC4/ISR_Function.c **** uint8 ISR_Function_GetPriority(void)
 279:Generated_Source\PSoC4/ISR_Function.c **** {
 148              		.loc 1 279 0
 149              		.cfi_startproc
 150              		@ args = 0, pretend = 0, frame = 0
 151              		@ frame_needed = 0, uses_anonymous_args = 0
 152              		@ link register save eliminated.
 153              	.LVL5:
 280:Generated_Source\PSoC4/ISR_Function.c ****     uint32 priority;
 281:Generated_Source\PSoC4/ISR_Function.c **** 	uint32 priorityOffset = ((ISR_Function__INTC_NUMBER % 4u) * 8u) + 6u;
 282:Generated_Source\PSoC4/ISR_Function.c **** 
 283:Generated_Source\PSoC4/ISR_Function.c ****     priority = (*ISR_Function_INTC_PRIOR & ISR_Function__INTC_PRIOR_MASK) >> priorityOffset;
 154              		.loc 1 283 0
 155 0000 024B     		ldr	r3, .L12
 156 0002 1868     		ldr	r0, [r3]
 157 0004 800B     		lsrs	r0, r0, #14
 158              	.LVL6:
 284:Generated_Source\PSoC4/ISR_Function.c **** 
 285:Generated_Source\PSoC4/ISR_Function.c ****     return (uint8)priority;
 159              		.loc 1 285 0
 160 0006 0323     		movs	r3, #3
 161 0008 1840     		ands	r0, r3
 162              	.LVL7:
 286:Generated_Source\PSoC4/ISR_Function.c **** }
 163              		.loc 1 286 0
 164              		@ sp needed
 165 000a 7047     		bx	lr
 166              	.L13:
 167              		.align	2
 168              	.L12:
 169 000c 10E400E0 		.word	-536812528
ARM GAS  C:\Users\Surface\AppData\Local\Temp\cc4KC3wL.s 			page 9


 170              		.cfi_endproc
 171              	.LFE42:
 172              		.size	ISR_Function_GetPriority, .-ISR_Function_GetPriority
 173              		.section	.text.ISR_Function_Enable,"ax",%progbits
 174              		.align	2
 175              		.global	ISR_Function_Enable
 176              		.code	16
 177              		.thumb_func
 178              		.type	ISR_Function_Enable, %function
 179              	ISR_Function_Enable:
 180              	.LFB43:
 287:Generated_Source\PSoC4/ISR_Function.c **** 
 288:Generated_Source\PSoC4/ISR_Function.c **** 
 289:Generated_Source\PSoC4/ISR_Function.c **** /*******************************************************************************
 290:Generated_Source\PSoC4/ISR_Function.c **** * Function Name: ISR_Function_Enable
 291:Generated_Source\PSoC4/ISR_Function.c **** ********************************************************************************
 292:Generated_Source\PSoC4/ISR_Function.c **** *
 293:Generated_Source\PSoC4/ISR_Function.c **** * Summary:
 294:Generated_Source\PSoC4/ISR_Function.c **** *   Enables the interrupt to the interrupt controller. Do not call this function
 295:Generated_Source\PSoC4/ISR_Function.c **** *   unless ISR_Start() has been called or the functionality of the ISR_Start() 
 296:Generated_Source\PSoC4/ISR_Function.c **** *   function, which sets the vector and the priority, has been called.
 297:Generated_Source\PSoC4/ISR_Function.c **** *
 298:Generated_Source\PSoC4/ISR_Function.c **** * Parameters:
 299:Generated_Source\PSoC4/ISR_Function.c **** *   None
 300:Generated_Source\PSoC4/ISR_Function.c **** *
 301:Generated_Source\PSoC4/ISR_Function.c **** * Return:
 302:Generated_Source\PSoC4/ISR_Function.c **** *   None
 303:Generated_Source\PSoC4/ISR_Function.c **** *
 304:Generated_Source\PSoC4/ISR_Function.c **** *******************************************************************************/
 305:Generated_Source\PSoC4/ISR_Function.c **** void ISR_Function_Enable(void)
 306:Generated_Source\PSoC4/ISR_Function.c **** {
 181              		.loc 1 306 0
 182              		.cfi_startproc
 183              		@ args = 0, pretend = 0, frame = 0
 184              		@ frame_needed = 0, uses_anonymous_args = 0
 185              		@ link register save eliminated.
 307:Generated_Source\PSoC4/ISR_Function.c ****     /* Enable the general interrupt. */
 308:Generated_Source\PSoC4/ISR_Function.c ****     *ISR_Function_INTC_SET_EN = ISR_Function__INTC_MASK;
 186              		.loc 1 308 0
 187 0000 8022     		movs	r2, #128
 188 0002 9202     		lsls	r2, r2, #10
 189 0004 014B     		ldr	r3, .L15
 190 0006 1A60     		str	r2, [r3]
 309:Generated_Source\PSoC4/ISR_Function.c **** }
 191              		.loc 1 309 0
 192              		@ sp needed
 193 0008 7047     		bx	lr
 194              	.L16:
 195 000a C046     		.align	2
 196              	.L15:
 197 000c 00E100E0 		.word	-536813312
 198              		.cfi_endproc
 199              	.LFE43:
 200              		.size	ISR_Function_Enable, .-ISR_Function_Enable
 201              		.section	.text.ISR_Function_GetState,"ax",%progbits
 202              		.align	2
 203              		.global	ISR_Function_GetState
ARM GAS  C:\Users\Surface\AppData\Local\Temp\cc4KC3wL.s 			page 10


 204              		.code	16
 205              		.thumb_func
 206              		.type	ISR_Function_GetState, %function
 207              	ISR_Function_GetState:
 208              	.LFB44:
 310:Generated_Source\PSoC4/ISR_Function.c **** 
 311:Generated_Source\PSoC4/ISR_Function.c **** 
 312:Generated_Source\PSoC4/ISR_Function.c **** /*******************************************************************************
 313:Generated_Source\PSoC4/ISR_Function.c **** * Function Name: ISR_Function_GetState
 314:Generated_Source\PSoC4/ISR_Function.c **** ********************************************************************************
 315:Generated_Source\PSoC4/ISR_Function.c **** *
 316:Generated_Source\PSoC4/ISR_Function.c **** * Summary:
 317:Generated_Source\PSoC4/ISR_Function.c **** *   Gets the state (enabled, disabled) of the Interrupt.
 318:Generated_Source\PSoC4/ISR_Function.c **** *
 319:Generated_Source\PSoC4/ISR_Function.c **** * Parameters:
 320:Generated_Source\PSoC4/ISR_Function.c **** *   None
 321:Generated_Source\PSoC4/ISR_Function.c **** *
 322:Generated_Source\PSoC4/ISR_Function.c **** * Return:
 323:Generated_Source\PSoC4/ISR_Function.c **** *   1 if enabled, 0 if disabled.
 324:Generated_Source\PSoC4/ISR_Function.c **** *
 325:Generated_Source\PSoC4/ISR_Function.c **** *******************************************************************************/
 326:Generated_Source\PSoC4/ISR_Function.c **** uint8 ISR_Function_GetState(void)
 327:Generated_Source\PSoC4/ISR_Function.c **** {
 209              		.loc 1 327 0
 210              		.cfi_startproc
 211              		@ args = 0, pretend = 0, frame = 0
 212              		@ frame_needed = 0, uses_anonymous_args = 0
 213              		@ link register save eliminated.
 328:Generated_Source\PSoC4/ISR_Function.c ****     /* Get the state of the general interrupt. */
 329:Generated_Source\PSoC4/ISR_Function.c ****     return ((*ISR_Function_INTC_SET_EN & (uint32)ISR_Function__INTC_MASK) != 0u) ? 1u:0u;
 214              		.loc 1 329 0
 215 0000 034B     		ldr	r3, .L20
 216 0002 1B68     		ldr	r3, [r3]
 217 0004 9B03     		lsls	r3, r3, #14
 218 0006 01D5     		bpl	.L19
 219 0008 0120     		movs	r0, #1
 220 000a 00E0     		b	.L18
 221              	.L19:
 222 000c 0020     		movs	r0, #0
 223              	.L18:
 330:Generated_Source\PSoC4/ISR_Function.c **** }
 224              		.loc 1 330 0 discriminator 4
 225              		@ sp needed
 226 000e 7047     		bx	lr
 227              	.L21:
 228              		.align	2
 229              	.L20:
 230 0010 00E100E0 		.word	-536813312
 231              		.cfi_endproc
 232              	.LFE44:
 233              		.size	ISR_Function_GetState, .-ISR_Function_GetState
 234              		.section	.text.ISR_Function_Disable,"ax",%progbits
 235              		.align	2
 236              		.global	ISR_Function_Disable
 237              		.code	16
 238              		.thumb_func
 239              		.type	ISR_Function_Disable, %function
ARM GAS  C:\Users\Surface\AppData\Local\Temp\cc4KC3wL.s 			page 11


 240              	ISR_Function_Disable:
 241              	.LFB45:
 331:Generated_Source\PSoC4/ISR_Function.c **** 
 332:Generated_Source\PSoC4/ISR_Function.c **** 
 333:Generated_Source\PSoC4/ISR_Function.c **** /*******************************************************************************
 334:Generated_Source\PSoC4/ISR_Function.c **** * Function Name: ISR_Function_Disable
 335:Generated_Source\PSoC4/ISR_Function.c **** ********************************************************************************
 336:Generated_Source\PSoC4/ISR_Function.c **** *
 337:Generated_Source\PSoC4/ISR_Function.c **** * Summary:
 338:Generated_Source\PSoC4/ISR_Function.c **** *   Disables the Interrupt in the interrupt controller.
 339:Generated_Source\PSoC4/ISR_Function.c **** *
 340:Generated_Source\PSoC4/ISR_Function.c **** * Parameters:
 341:Generated_Source\PSoC4/ISR_Function.c **** *   None
 342:Generated_Source\PSoC4/ISR_Function.c **** *
 343:Generated_Source\PSoC4/ISR_Function.c **** * Return:
 344:Generated_Source\PSoC4/ISR_Function.c **** *   None
 345:Generated_Source\PSoC4/ISR_Function.c **** *
 346:Generated_Source\PSoC4/ISR_Function.c **** *******************************************************************************/
 347:Generated_Source\PSoC4/ISR_Function.c **** void ISR_Function_Disable(void)
 348:Generated_Source\PSoC4/ISR_Function.c **** {
 242              		.loc 1 348 0
 243              		.cfi_startproc
 244              		@ args = 0, pretend = 0, frame = 0
 245              		@ frame_needed = 0, uses_anonymous_args = 0
 246              		@ link register save eliminated.
 349:Generated_Source\PSoC4/ISR_Function.c ****     /* Disable the general interrupt. */
 350:Generated_Source\PSoC4/ISR_Function.c ****     *ISR_Function_INTC_CLR_EN = ISR_Function__INTC_MASK;
 247              		.loc 1 350 0
 248 0000 8022     		movs	r2, #128
 249 0002 9202     		lsls	r2, r2, #10
 250 0004 014B     		ldr	r3, .L23
 251 0006 1A60     		str	r2, [r3]
 351:Generated_Source\PSoC4/ISR_Function.c **** }
 252              		.loc 1 351 0
 253              		@ sp needed
 254 0008 7047     		bx	lr
 255              	.L24:
 256 000a C046     		.align	2
 257              	.L23:
 258 000c 80E100E0 		.word	-536813184
 259              		.cfi_endproc
 260              	.LFE45:
 261              		.size	ISR_Function_Disable, .-ISR_Function_Disable
 262              		.section	.text.ISR_Function_Start,"ax",%progbits
 263              		.align	2
 264              		.global	ISR_Function_Start
 265              		.code	16
 266              		.thumb_func
 267              		.type	ISR_Function_Start, %function
 268              	ISR_Function_Start:
 269              	.LFB35:
  58:Generated_Source\PSoC4/ISR_Function.c ****     /* For all we know the interrupt is active. */
 270              		.loc 1 58 0
 271              		.cfi_startproc
 272              		@ args = 0, pretend = 0, frame = 0
 273              		@ frame_needed = 0, uses_anonymous_args = 0
 274 0000 10B5     		push	{r4, lr}
ARM GAS  C:\Users\Surface\AppData\Local\Temp\cc4KC3wL.s 			page 12


 275              		.cfi_def_cfa_offset 8
 276              		.cfi_offset 4, -8
 277              		.cfi_offset 14, -4
  60:Generated_Source\PSoC4/ISR_Function.c **** 
 278              		.loc 1 60 0
 279 0002 FFF7FEFF 		bl	ISR_Function_Disable
 280              	.LVL8:
  63:Generated_Source\PSoC4/ISR_Function.c **** 
 281              		.loc 1 63 0
 282 0006 0448     		ldr	r0, .L26
 283 0008 FFF7FEFF 		bl	ISR_Function_SetVector
 284              	.LVL9:
  66:Generated_Source\PSoC4/ISR_Function.c **** 
 285              		.loc 1 66 0
 286 000c 0320     		movs	r0, #3
 287 000e FFF7FEFF 		bl	ISR_Function_SetPriority
 288              	.LVL10:
  69:Generated_Source\PSoC4/ISR_Function.c **** }
 289              		.loc 1 69 0
 290 0012 FFF7FEFF 		bl	ISR_Function_Enable
 291              	.LVL11:
  70:Generated_Source\PSoC4/ISR_Function.c **** 
 292              		.loc 1 70 0
 293              		@ sp needed
 294 0016 10BD     		pop	{r4, pc}
 295              	.L27:
 296              		.align	2
 297              	.L26:
 298 0018 00000000 		.word	ISR_Function_Interrupt
 299              		.cfi_endproc
 300              	.LFE35:
 301              		.size	ISR_Function_Start, .-ISR_Function_Start
 302              		.section	.text.ISR_Function_StartEx,"ax",%progbits
 303              		.align	2
 304              		.global	ISR_Function_StartEx
 305              		.code	16
 306              		.thumb_func
 307              		.type	ISR_Function_StartEx, %function
 308              	ISR_Function_StartEx:
 309              	.LFB36:
 101:Generated_Source\PSoC4/ISR_Function.c ****     /* For all we know the interrupt is active. */
 310              		.loc 1 101 0
 311              		.cfi_startproc
 312              		@ args = 0, pretend = 0, frame = 0
 313              		@ frame_needed = 0, uses_anonymous_args = 0
 314              	.LVL12:
 315 0000 10B5     		push	{r4, lr}
 316              		.cfi_def_cfa_offset 8
 317              		.cfi_offset 4, -8
 318              		.cfi_offset 14, -4
 319 0002 0400     		movs	r4, r0
 103:Generated_Source\PSoC4/ISR_Function.c **** 
 320              		.loc 1 103 0
 321 0004 FFF7FEFF 		bl	ISR_Function_Disable
 322              	.LVL13:
 106:Generated_Source\PSoC4/ISR_Function.c **** 
 323              		.loc 1 106 0
ARM GAS  C:\Users\Surface\AppData\Local\Temp\cc4KC3wL.s 			page 13


 324 0008 2000     		movs	r0, r4
 325 000a FFF7FEFF 		bl	ISR_Function_SetVector
 326              	.LVL14:
 109:Generated_Source\PSoC4/ISR_Function.c **** 
 327              		.loc 1 109 0
 328 000e 0320     		movs	r0, #3
 329 0010 FFF7FEFF 		bl	ISR_Function_SetPriority
 330              	.LVL15:
 112:Generated_Source\PSoC4/ISR_Function.c **** }
 331              		.loc 1 112 0
 332 0014 FFF7FEFF 		bl	ISR_Function_Enable
 333              	.LVL16:
 113:Generated_Source\PSoC4/ISR_Function.c **** 
 334              		.loc 1 113 0
 335              		@ sp needed
 336              	.LVL17:
 337 0018 10BD     		pop	{r4, pc}
 338              		.cfi_endproc
 339              	.LFE36:
 340              		.size	ISR_Function_StartEx, .-ISR_Function_StartEx
 341 001a C046     		.section	.text.ISR_Function_Stop,"ax",%progbits
 342              		.align	2
 343              		.global	ISR_Function_Stop
 344              		.code	16
 345              		.thumb_func
 346              		.type	ISR_Function_Stop, %function
 347              	ISR_Function_Stop:
 348              	.LFB37:
 131:Generated_Source\PSoC4/ISR_Function.c ****     /* Disable this interrupt. */
 349              		.loc 1 131 0
 350              		.cfi_startproc
 351              		@ args = 0, pretend = 0, frame = 0
 352              		@ frame_needed = 0, uses_anonymous_args = 0
 353 0000 10B5     		push	{r4, lr}
 354              		.cfi_def_cfa_offset 8
 355              		.cfi_offset 4, -8
 356              		.cfi_offset 14, -4
 133:Generated_Source\PSoC4/ISR_Function.c **** 
 357              		.loc 1 133 0
 358 0002 FFF7FEFF 		bl	ISR_Function_Disable
 359              	.LVL18:
 136:Generated_Source\PSoC4/ISR_Function.c **** }
 360              		.loc 1 136 0
 361 0006 0248     		ldr	r0, .L30
 362 0008 FFF7FEFF 		bl	ISR_Function_SetVector
 363              	.LVL19:
 137:Generated_Source\PSoC4/ISR_Function.c **** 
 364              		.loc 1 137 0
 365              		@ sp needed
 366 000c 10BD     		pop	{r4, pc}
 367              	.L31:
 368 000e C046     		.align	2
 369              	.L30:
 370 0010 00000000 		.word	IntDefaultHandler
 371              		.cfi_endproc
 372              	.LFE37:
 373              		.size	ISR_Function_Stop, .-ISR_Function_Stop
ARM GAS  C:\Users\Surface\AppData\Local\Temp\cc4KC3wL.s 			page 14


 374              		.section	.text.ISR_Function_SetPending,"ax",%progbits
 375              		.align	2
 376              		.global	ISR_Function_SetPending
 377              		.code	16
 378              		.thumb_func
 379              		.type	ISR_Function_SetPending, %function
 380              	ISR_Function_SetPending:
 381              	.LFB46:
 352:Generated_Source\PSoC4/ISR_Function.c **** 
 353:Generated_Source\PSoC4/ISR_Function.c **** 
 354:Generated_Source\PSoC4/ISR_Function.c **** /*******************************************************************************
 355:Generated_Source\PSoC4/ISR_Function.c **** * Function Name: ISR_Function_SetPending
 356:Generated_Source\PSoC4/ISR_Function.c **** ********************************************************************************
 357:Generated_Source\PSoC4/ISR_Function.c **** *
 358:Generated_Source\PSoC4/ISR_Function.c **** * Summary:
 359:Generated_Source\PSoC4/ISR_Function.c **** *   Causes the Interrupt to enter the pending state, a software method of
 360:Generated_Source\PSoC4/ISR_Function.c **** *   generating the interrupt.
 361:Generated_Source\PSoC4/ISR_Function.c **** *
 362:Generated_Source\PSoC4/ISR_Function.c **** * Parameters:
 363:Generated_Source\PSoC4/ISR_Function.c **** *   None
 364:Generated_Source\PSoC4/ISR_Function.c **** *
 365:Generated_Source\PSoC4/ISR_Function.c **** * Return:
 366:Generated_Source\PSoC4/ISR_Function.c **** *   None
 367:Generated_Source\PSoC4/ISR_Function.c **** *
 368:Generated_Source\PSoC4/ISR_Function.c **** * Side Effects:
 369:Generated_Source\PSoC4/ISR_Function.c **** *   If interrupts are enabled and the interrupt is set up properly, the ISR is
 370:Generated_Source\PSoC4/ISR_Function.c **** *   entered (depending on the priority of this interrupt and other pending 
 371:Generated_Source\PSoC4/ISR_Function.c **** *   interrupts).
 372:Generated_Source\PSoC4/ISR_Function.c **** *
 373:Generated_Source\PSoC4/ISR_Function.c **** *******************************************************************************/
 374:Generated_Source\PSoC4/ISR_Function.c **** void ISR_Function_SetPending(void)
 375:Generated_Source\PSoC4/ISR_Function.c **** {
 382              		.loc 1 375 0
 383              		.cfi_startproc
 384              		@ args = 0, pretend = 0, frame = 0
 385              		@ frame_needed = 0, uses_anonymous_args = 0
 386              		@ link register save eliminated.
 376:Generated_Source\PSoC4/ISR_Function.c ****     *ISR_Function_INTC_SET_PD = ISR_Function__INTC_MASK;
 387              		.loc 1 376 0
 388 0000 8022     		movs	r2, #128
 389 0002 9202     		lsls	r2, r2, #10
 390 0004 014B     		ldr	r3, .L33
 391 0006 1A60     		str	r2, [r3]
 377:Generated_Source\PSoC4/ISR_Function.c **** }
 392              		.loc 1 377 0
 393              		@ sp needed
 394 0008 7047     		bx	lr
 395              	.L34:
 396 000a C046     		.align	2
 397              	.L33:
 398 000c 00E200E0 		.word	-536813056
 399              		.cfi_endproc
 400              	.LFE46:
 401              		.size	ISR_Function_SetPending, .-ISR_Function_SetPending
 402              		.section	.text.ISR_Function_ClearPending,"ax",%progbits
 403              		.align	2
 404              		.global	ISR_Function_ClearPending
ARM GAS  C:\Users\Surface\AppData\Local\Temp\cc4KC3wL.s 			page 15


 405              		.code	16
 406              		.thumb_func
 407              		.type	ISR_Function_ClearPending, %function
 408              	ISR_Function_ClearPending:
 409              	.LFB47:
 378:Generated_Source\PSoC4/ISR_Function.c **** 
 379:Generated_Source\PSoC4/ISR_Function.c **** 
 380:Generated_Source\PSoC4/ISR_Function.c **** /*******************************************************************************
 381:Generated_Source\PSoC4/ISR_Function.c **** * Function Name: ISR_Function_ClearPending
 382:Generated_Source\PSoC4/ISR_Function.c **** ********************************************************************************
 383:Generated_Source\PSoC4/ISR_Function.c **** *
 384:Generated_Source\PSoC4/ISR_Function.c **** * Summary:
 385:Generated_Source\PSoC4/ISR_Function.c **** *   Clears a pending interrupt in the interrupt controller.
 386:Generated_Source\PSoC4/ISR_Function.c **** *
 387:Generated_Source\PSoC4/ISR_Function.c **** *   Note Some interrupt sources are clear-on-read and require the block 
 388:Generated_Source\PSoC4/ISR_Function.c **** *   interrupt/status register to be read/cleared with the appropriate block API 
 389:Generated_Source\PSoC4/ISR_Function.c **** *   (GPIO, UART, and so on). Otherwise the ISR will continue to remain in 
 390:Generated_Source\PSoC4/ISR_Function.c **** *   pending state even though the interrupt itself is cleared using this API.
 391:Generated_Source\PSoC4/ISR_Function.c **** *
 392:Generated_Source\PSoC4/ISR_Function.c **** * Parameters:
 393:Generated_Source\PSoC4/ISR_Function.c **** *   None
 394:Generated_Source\PSoC4/ISR_Function.c **** *
 395:Generated_Source\PSoC4/ISR_Function.c **** * Return:
 396:Generated_Source\PSoC4/ISR_Function.c **** *   None
 397:Generated_Source\PSoC4/ISR_Function.c **** *
 398:Generated_Source\PSoC4/ISR_Function.c **** *******************************************************************************/
 399:Generated_Source\PSoC4/ISR_Function.c **** void ISR_Function_ClearPending(void)
 400:Generated_Source\PSoC4/ISR_Function.c **** {
 410              		.loc 1 400 0
 411              		.cfi_startproc
 412              		@ args = 0, pretend = 0, frame = 0
 413              		@ frame_needed = 0, uses_anonymous_args = 0
 414              		@ link register save eliminated.
 401:Generated_Source\PSoC4/ISR_Function.c ****     *ISR_Function_INTC_CLR_PD = ISR_Function__INTC_MASK;
 415              		.loc 1 401 0
 416 0000 8022     		movs	r2, #128
 417 0002 9202     		lsls	r2, r2, #10
 418 0004 014B     		ldr	r3, .L36
 419 0006 1A60     		str	r2, [r3]
 402:Generated_Source\PSoC4/ISR_Function.c **** }
 420              		.loc 1 402 0
 421              		@ sp needed
 422 0008 7047     		bx	lr
 423              	.L37:
 424 000a C046     		.align	2
 425              	.L36:
 426 000c 80E200E0 		.word	-536812928
 427              		.cfi_endproc
 428              	.LFE47:
 429              		.size	ISR_Function_ClearPending, .-ISR_Function_ClearPending
 430              		.global	LED_Status
 431              		.bss
 432              		.type	LED_Status, %object
 433              		.size	LED_Status, 1
 434              	LED_Status:
 435 0000 00       		.space	1
 436              		.text
ARM GAS  C:\Users\Surface\AppData\Local\Temp\cc4KC3wL.s 			page 16


 437              	.Letext0:
 438              		.file 2 "c:\\program files (x86)\\cypress\\psoc creator\\4.4\\psoc creator\\import\\gnu\\arm\\5.4.
 439              		.file 3 "c:\\program files (x86)\\cypress\\psoc creator\\4.4\\psoc creator\\import\\gnu\\arm\\5.4.
 440              		.file 4 "Generated_Source\\PSoC4/cytypes.h"
 441              		.file 5 "Generated_Source\\PSoC4/CyLib.h"