ARM GAS  C:\Users\freem\AppData\Local\Temp\ccCqoMXZ.s 			page 1


   1              		.syntax unified
   2              		.cpu cortex-m0
   3              		.fpu softvfp
   4              		.eabi_attribute 20, 1
   5              		.eabi_attribute 21, 1
   6              		.eabi_attribute 23, 3
   7              		.eabi_attribute 24, 1
   8              		.eabi_attribute 25, 1
   9              		.eabi_attribute 26, 1
  10              		.eabi_attribute 30, 1
  11              		.eabi_attribute 34, 0
  12              		.eabi_attribute 18, 4
  13              		.thumb
  14              		.syntax unified
  15              		.file	"ThermocoupleCalculator.c"
  16              		.text
  17              	.Ltext0:
  18              		.cfi_sections	.debug_frame
  19              		.global	__aeabi_lmul
  20              		.section	.text.ThermocoupleCalculator_MultShift24,"ax",%progbits
  21              		.align	2
  22              		.global	ThermocoupleCalculator_MultShift24
  23              		.code	16
  24              		.thumb_func
  25              		.type	ThermocoupleCalculator_MultShift24, %function
  26              	ThermocoupleCalculator_MultShift24:
  27              	.LFB2:
  28              		.file 1 "Generated_Source\\PSoC4\\ThermocoupleCalculator.c"
   1:Generated_Source\PSoC4/ThermocoupleCalculator.c **** /*******************************************************************************
   2:Generated_Source\PSoC4/ThermocoupleCalculator.c **** * File Name: ThermocoupleCalculator.c
   3:Generated_Source\PSoC4/ThermocoupleCalculator.c **** * Version 1.20
   4:Generated_Source\PSoC4/ThermocoupleCalculator.c **** *
   5:Generated_Source\PSoC4/ThermocoupleCalculator.c **** * Description:
   6:Generated_Source\PSoC4/ThermocoupleCalculator.c **** *  This file provides the source code to the API for the ThermocoupleCalculator
   7:Generated_Source\PSoC4/ThermocoupleCalculator.c **** *  component
   8:Generated_Source\PSoC4/ThermocoupleCalculator.c **** *
   9:Generated_Source\PSoC4/ThermocoupleCalculator.c **** * Note:
  10:Generated_Source\PSoC4/ThermocoupleCalculator.c **** *  None
  11:Generated_Source\PSoC4/ThermocoupleCalculator.c **** *
  12:Generated_Source\PSoC4/ThermocoupleCalculator.c **** ********************************************************************************
  13:Generated_Source\PSoC4/ThermocoupleCalculator.c **** * Copyright 2012-2013, Cypress Semiconductor Corporation.  All rights reserved.
  14:Generated_Source\PSoC4/ThermocoupleCalculator.c **** * You may use this file only in accordance with the license, terms, conditions,
  15:Generated_Source\PSoC4/ThermocoupleCalculator.c **** * disclaimers, and limitations in the end user license agreement accompanying
  16:Generated_Source\PSoC4/ThermocoupleCalculator.c **** * the software package with which this file was provided.
  17:Generated_Source\PSoC4/ThermocoupleCalculator.c **** *******************************************************************************/
  18:Generated_Source\PSoC4/ThermocoupleCalculator.c **** 
  19:Generated_Source\PSoC4/ThermocoupleCalculator.c **** #include "ThermocoupleCalculator.h"
  20:Generated_Source\PSoC4/ThermocoupleCalculator.c **** 
  21:Generated_Source\PSoC4/ThermocoupleCalculator.c **** #if(!CY_PSOC3)
  22:Generated_Source\PSoC4/ThermocoupleCalculator.c **** 
  23:Generated_Source\PSoC4/ThermocoupleCalculator.c ****     /*******************************************************************************
  24:Generated_Source\PSoC4/ThermocoupleCalculator.c ****     * Function Name: ThermocoupleCalculator_MultShift24
  25:Generated_Source\PSoC4/ThermocoupleCalculator.c ****     ********************************************************************************
  26:Generated_Source\PSoC4/ThermocoupleCalculator.c ****     *
  27:Generated_Source\PSoC4/ThermocoupleCalculator.c ****     * Summary:
  28:Generated_Source\PSoC4/ThermocoupleCalculator.c ****     *  Performs the math function (op1 * op2) >> 24 using 64 bit arithmetic without
  29:Generated_Source\PSoC4/ThermocoupleCalculator.c ****     *  any loss of precision and without overflow.
ARM GAS  C:\Users\freem\AppData\Local\Temp\ccCqoMXZ.s 			page 2


  30:Generated_Source\PSoC4/ThermocoupleCalculator.c ****     *
  31:Generated_Source\PSoC4/ThermocoupleCalculator.c ****     * Parameters:
  32:Generated_Source\PSoC4/ThermocoupleCalculator.c ****     *  op1: Signed 32-bit operand
  33:Generated_Source\PSoC4/ThermocoupleCalculator.c ****     *  op2: Signed 24-bit operand
  34:Generated_Source\PSoC4/ThermocoupleCalculator.c ****     *
  35:Generated_Source\PSoC4/ThermocoupleCalculator.c ****     * Return:
  36:Generated_Source\PSoC4/ThermocoupleCalculator.c ****     *  Signed 32-bit result of the math calculation
  37:Generated_Source\PSoC4/ThermocoupleCalculator.c ****     *
  38:Generated_Source\PSoC4/ThermocoupleCalculator.c ****     *******************************************************************************/
  39:Generated_Source\PSoC4/ThermocoupleCalculator.c ****     int32 ThermocoupleCalculator_MultShift24(int32 op1, int32 op2) 
  40:Generated_Source\PSoC4/ThermocoupleCalculator.c ****     {
  29              		.loc 1 40 0
  30              		.cfi_startproc
  31              		@ args = 0, pretend = 0, frame = 0
  32              		@ frame_needed = 0, uses_anonymous_args = 0
  33              	.LVL0:
  34 0000 10B5     		push	{r4, lr}
  35              		.cfi_def_cfa_offset 8
  36              		.cfi_offset 4, -8
  37              		.cfi_offset 14, -4
  38 0002 0A00     		movs	r2, r1
  39              	.LVL1:
  41:Generated_Source\PSoC4/ThermocoupleCalculator.c ****         int64 result=0;
  42:Generated_Source\PSoC4/ThermocoupleCalculator.c **** 
  43:Generated_Source\PSoC4/ThermocoupleCalculator.c ****         result = (int64)op1 * (int64)op2;
  40              		.loc 1 43 0
  41 0004 C117     		asrs	r1, r0, #31
  42              	.LVL2:
  43 0006 D317     		asrs	r3, r2, #31
  44 0008 FFF7FEFF 		bl	__aeabi_lmul
  45              	.LVL3:
  44:Generated_Source\PSoC4/ThermocoupleCalculator.c ****         if (result < 0)
  46              		.loc 1 44 0
  47 000c 0029     		cmp	r1, #0
  48 000e 0BDA     		bge	.L2
  45:Generated_Source\PSoC4/ThermocoupleCalculator.c ****         {
  46:Generated_Source\PSoC4/ThermocoupleCalculator.c ****             result = -result;
  49              		.loc 1 46 0
  50 0010 0023     		movs	r3, #0
  51 0012 4242     		rsbs	r2, r0, #0
  52 0014 8B41     		sbcs	r3, r1
  53              	.LVL4:
  47:Generated_Source\PSoC4/ThermocoupleCalculator.c ****             result = (int32)((uint64)((uint64)result >> ThermocoupleCalculator_24BIT_SHIFTING));
  54              		.loc 1 47 0
  55 0016 1B02     		lsls	r3, r3, #8
  56 0018 120E     		lsrs	r2, r2, #24
  57              	.LVL5:
  58 001a 1A43     		orrs	r2, r3
  59 001c 1000     		movs	r0, r2
  60              	.LVL6:
  61 001e D117     		asrs	r1, r2, #31
  62              	.LVL7:
  48:Generated_Source\PSoC4/ThermocoupleCalculator.c ****             result = -result;
  63              		.loc 1 48 0
  64 0020 0023     		movs	r3, #0
  65 0022 4242     		rsbs	r2, r0, #0
  66 0024 8B41     		sbcs	r3, r1
ARM GAS  C:\Users\freem\AppData\Local\Temp\ccCqoMXZ.s 			page 3


  67              	.LVL8:
  68 0026 03E0     		b	.L4
  69              	.LVL9:
  70              	.L2:
  49:Generated_Source\PSoC4/ThermocoupleCalculator.c ****         }
  50:Generated_Source\PSoC4/ThermocoupleCalculator.c ****         else
  51:Generated_Source\PSoC4/ThermocoupleCalculator.c ****         {
  52:Generated_Source\PSoC4/ThermocoupleCalculator.c ****             result = (int32)((uint64)((uint64)result >> ThermocoupleCalculator_24BIT_SHIFTING));
  71              		.loc 1 52 0
  72 0028 0B02     		lsls	r3, r1, #8
  73 002a 000E     		lsrs	r0, r0, #24
  74              	.LVL10:
  75 002c 1843     		orrs	r0, r3
  76 002e 0200     		movs	r2, r0
  77              	.L4:
  53:Generated_Source\PSoC4/ThermocoupleCalculator.c ****         }
  54:Generated_Source\PSoC4/ThermocoupleCalculator.c ****         return (result);
  55:Generated_Source\PSoC4/ThermocoupleCalculator.c ****     }        
  78              		.loc 1 55 0
  79 0030 1000     		movs	r0, r2
  80              		@ sp needed
  81 0032 10BD     		pop	{r4, pc}
  82              		.cfi_endproc
  83              	.LFE2:
  84              		.size	ThermocoupleCalculator_MultShift24, .-ThermocoupleCalculator_MultShift24
  85              		.section	.text.ThermocoupleCalculator_GetTemperature,"ax",%progbits
  86              		.align	2
  87              		.global	ThermocoupleCalculator_GetTemperature
  88              		.code	16
  89              		.thumb_func
  90              		.type	ThermocoupleCalculator_GetTemperature, %function
  91              	ThermocoupleCalculator_GetTemperature:
  92              	.LFB3:
  56:Generated_Source\PSoC4/ThermocoupleCalculator.c **** #endif /* End (!CY_PSOC3) */
  57:Generated_Source\PSoC4/ThermocoupleCalculator.c **** 
  58:Generated_Source\PSoC4/ThermocoupleCalculator.c **** 
  59:Generated_Source\PSoC4/ThermocoupleCalculator.c **** /*******************************************************************************
  60:Generated_Source\PSoC4/ThermocoupleCalculator.c **** * Function Name: ThermocoupleCalculator_GetTemperature
  61:Generated_Source\PSoC4/ThermocoupleCalculator.c **** ********************************************************************************
  62:Generated_Source\PSoC4/ThermocoupleCalculator.c **** *
  63:Generated_Source\PSoC4/ThermocoupleCalculator.c **** * Summary:
  64:Generated_Source\PSoC4/ThermocoupleCalculator.c **** *  This function takes thermocouple voltage in microvolt as i/p and calculates
  65:Generated_Source\PSoC4/ThermocoupleCalculator.c **** *  temperature corresponding to the thermocouple voltage. The order of the
  66:Generated_Source\PSoC4/ThermocoupleCalculator.c **** *  polynomial and the polynomial coefficients used to convert voltage to
  67:Generated_Source\PSoC4/ThermocoupleCalculator.c **** *  temperature are dependent on the type of thermocouple selected.
  68:Generated_Source\PSoC4/ThermocoupleCalculator.c **** *
  69:Generated_Source\PSoC4/ThermocoupleCalculator.c **** * Parameters:
  70:Generated_Source\PSoC4/ThermocoupleCalculator.c **** *  int32 voltage : Thermocouple voltage measured in microvolts.
  71:Generated_Source\PSoC4/ThermocoupleCalculator.c **** *
  72:Generated_Source\PSoC4/ThermocoupleCalculator.c **** * Return:
  73:Generated_Source\PSoC4/ThermocoupleCalculator.c **** *  int32 : Temperature in 1/100 degree C
  74:Generated_Source\PSoC4/ThermocoupleCalculator.c **** *
  75:Generated_Source\PSoC4/ThermocoupleCalculator.c **** *******************************************************************************/
  76:Generated_Source\PSoC4/ThermocoupleCalculator.c **** int32 ThermocoupleCalculator_GetTemperature(int32 voltage) 
  77:Generated_Source\PSoC4/ThermocoupleCalculator.c **** 
  78:Generated_Source\PSoC4/ThermocoupleCalculator.c **** #if(CY_PSOC3)
  79:Generated_Source\PSoC4/ThermocoupleCalculator.c **** {
ARM GAS  C:\Users\freem\AppData\Local\Temp\ccCqoMXZ.s 			page 4


  80:Generated_Source\PSoC4/ThermocoupleCalculator.c **** 
  81:Generated_Source\PSoC4/ThermocoupleCalculator.c ****     /***************************************
  82:Generated_Source\PSoC4/ThermocoupleCalculator.c ****     *  Customizer Generated Coefficients
  83:Generated_Source\PSoC4/ThermocoupleCalculator.c ****     ***************************************/
  84:Generated_Source\PSoC4/ThermocoupleCalculator.c ****     const int32 CYCODE ThermocoupleCalculator_coeffVT[][3] = {{675113, 565925, -13785657},
  85:Generated_Source\PSoC4/ThermocoupleCalculator.c ****                                                           {358257198, 325093793, 247382587},
  86:Generated_Source\PSoC4/ThermocoupleCalculator.c ****                                                           {85791428, -10286661, -180220095},
  87:Generated_Source\PSoC4/ThermocoupleCalculator.c ****                                                           {267517030, 75092971, 169309160},
  88:Generated_Source\PSoC4/ThermocoupleCalculator.c ****                                                           {240610908, -100723723, -75207091},
  89:Generated_Source\PSoC4/ThermocoupleCalculator.c ****                                                           {89458772, 37722436, 13834210}};
  90:Generated_Source\PSoC4/ThermocoupleCalculator.c **** 
  91:Generated_Source\PSoC4/ThermocoupleCalculator.c **** const int32 CYCODE ThermocoupleCalculator_voltRange[2] = {0, 20644};
  92:Generated_Source\PSoC4/ThermocoupleCalculator.c **** 
  93:Generated_Source\PSoC4/ThermocoupleCalculator.c **** const int8 CYCODE ThermocoupleCalculator_xScaleVT[3] = {12, 14, 15};
  94:Generated_Source\PSoC4/ThermocoupleCalculator.c **** const int8 CYCODE ThermocoupleCalculator_coefScaleVT[3] = {15, 13, 11};
  95:Generated_Source\PSoC4/ThermocoupleCalculator.c **** 
  96:Generated_Source\PSoC4/ThermocoupleCalculator.c ****     /* Variable to store temperature */
  97:Generated_Source\PSoC4/ThermocoupleCalculator.c ****     float32 temp=0.0f;
  98:Generated_Source\PSoC4/ThermocoupleCalculator.c ****     float32 voltageNorm=0.0f;
  99:Generated_Source\PSoC4/ThermocoupleCalculator.c ****     uint8 i=0u;
 100:Generated_Source\PSoC4/ThermocoupleCalculator.c **** 
 101:Generated_Source\PSoC4/ThermocoupleCalculator.c ****     #if (ThermocoupleCalculator_VT_RANGE_LEN == ThermocoupleCalculator_THREE)
 102:Generated_Source\PSoC4/ThermocoupleCalculator.c ****     {
 103:Generated_Source\PSoC4/ThermocoupleCalculator.c ****         voltageNorm = (float32)voltage;
 104:Generated_Source\PSoC4/ThermocoupleCalculator.c **** 
 105:Generated_Source\PSoC4/ThermocoupleCalculator.c ****         if(voltage < ThermocoupleCalculator_voltRange[ThermocoupleCalculator_RANGE_MAS_0] )
 106:Generated_Source\PSoC4/ThermocoupleCalculator.c ****         {
 107:Generated_Source\PSoC4/ThermocoupleCalculator.c ****             for (i=ThermocoupleCalculator_ORDER_VT - 1u; i > 0u; i--)
 108:Generated_Source\PSoC4/ThermocoupleCalculator.c ****             {
 109:Generated_Source\PSoC4/ThermocoupleCalculator.c ****                 temp = (temp + ThermocoupleCalculator_coeffVT[i][ThermocoupleCalculator_RANGE_MAS_0
 110:Generated_Source\PSoC4/ThermocoupleCalculator.c ****             }
 111:Generated_Source\PSoC4/ThermocoupleCalculator.c ****             temp = (temp + ThermocoupleCalculator_coeffVT[ThermocoupleCalculator_FIRST_EL_MAS][Ther
 112:Generated_Source\PSoC4/ThermocoupleCalculator.c ****         }
 113:Generated_Source\PSoC4/ThermocoupleCalculator.c **** 
 114:Generated_Source\PSoC4/ThermocoupleCalculator.c ****         else if(voltage <= ThermocoupleCalculator_voltRange[ThermocoupleCalculator_RANGE_MAS_1] )
 115:Generated_Source\PSoC4/ThermocoupleCalculator.c ****         {
 116:Generated_Source\PSoC4/ThermocoupleCalculator.c ****             for (i=ThermocoupleCalculator_ORDER_VT - 1u; i > 0u; i--)
 117:Generated_Source\PSoC4/ThermocoupleCalculator.c ****             {
 118:Generated_Source\PSoC4/ThermocoupleCalculator.c ****                 temp = (temp + ThermocoupleCalculator_coeffVT[i][ThermocoupleCalculator_RANGE_MAS_1
 119:Generated_Source\PSoC4/ThermocoupleCalculator.c ****             }
 120:Generated_Source\PSoC4/ThermocoupleCalculator.c ****             temp = (temp + ThermocoupleCalculator_coeffVT[ThermocoupleCalculator_FIRST_EL_MAS][Ther
 121:Generated_Source\PSoC4/ThermocoupleCalculator.c ****         }
 122:Generated_Source\PSoC4/ThermocoupleCalculator.c **** 
 123:Generated_Source\PSoC4/ThermocoupleCalculator.c ****         else if(voltage <= ThermocoupleCalculator_voltRange[ThermocoupleCalculator_RANGE_MAS_2] )
 124:Generated_Source\PSoC4/ThermocoupleCalculator.c ****         {
 125:Generated_Source\PSoC4/ThermocoupleCalculator.c ****             for (i=ThermocoupleCalculator_ORDER_VT - 1u; i > 0u; i--)
 126:Generated_Source\PSoC4/ThermocoupleCalculator.c ****             {
 127:Generated_Source\PSoC4/ThermocoupleCalculator.c ****                 temp = (temp + ThermocoupleCalculator_coeffVT[i][ThermocoupleCalculator_RANGE_MAS_2
 128:Generated_Source\PSoC4/ThermocoupleCalculator.c ****             }
 129:Generated_Source\PSoC4/ThermocoupleCalculator.c ****             temp = (temp + ThermocoupleCalculator_coeffVT[ThermocoupleCalculator_FIRST_EL_MAS][Ther
 130:Generated_Source\PSoC4/ThermocoupleCalculator.c ****         }
 131:Generated_Source\PSoC4/ThermocoupleCalculator.c **** 
 132:Generated_Source\PSoC4/ThermocoupleCalculator.c ****         else
 133:Generated_Source\PSoC4/ThermocoupleCalculator.c ****         {
 134:Generated_Source\PSoC4/ThermocoupleCalculator.c ****             for (i=ThermocoupleCalculator_ORDER_VT - 1u; i > 0u; i--)
 135:Generated_Source\PSoC4/ThermocoupleCalculator.c ****             {
 136:Generated_Source\PSoC4/ThermocoupleCalculator.c ****                 temp = (temp + ThermocoupleCalculator_coeffVT[i][ThermocoupleCalculator_RANGE_MAS_3
ARM GAS  C:\Users\freem\AppData\Local\Temp\ccCqoMXZ.s 			page 5


 137:Generated_Source\PSoC4/ThermocoupleCalculator.c ****             }
 138:Generated_Source\PSoC4/ThermocoupleCalculator.c ****             temp = (temp + ThermocoupleCalculator_coeffVT[ThermocoupleCalculator_FIRST_EL_MAS][Ther
 139:Generated_Source\PSoC4/ThermocoupleCalculator.c ****         }
 140:Generated_Source\PSoC4/ThermocoupleCalculator.c ****     }
 141:Generated_Source\PSoC4/ThermocoupleCalculator.c **** 
 142:Generated_Source\PSoC4/ThermocoupleCalculator.c ****     #else
 143:Generated_Source\PSoC4/ThermocoupleCalculator.c ****     {
 144:Generated_Source\PSoC4/ThermocoupleCalculator.c ****         voltageNorm = (float32)voltage;
 145:Generated_Source\PSoC4/ThermocoupleCalculator.c **** 
 146:Generated_Source\PSoC4/ThermocoupleCalculator.c ****         if(voltage < ThermocoupleCalculator_voltRange[ThermocoupleCalculator_RANGE_MAS_0] )
 147:Generated_Source\PSoC4/ThermocoupleCalculator.c ****         {
 148:Generated_Source\PSoC4/ThermocoupleCalculator.c ****             for (i=ThermocoupleCalculator_ORDER_VT - 1u; i > 0u; i--)
 149:Generated_Source\PSoC4/ThermocoupleCalculator.c ****             {
 150:Generated_Source\PSoC4/ThermocoupleCalculator.c ****                 temp = (temp + ThermocoupleCalculator_coeffVT[i][ThermocoupleCalculator_RANGE_MAS_0
 151:Generated_Source\PSoC4/ThermocoupleCalculator.c ****             }
 152:Generated_Source\PSoC4/ThermocoupleCalculator.c ****             temp = (temp + ThermocoupleCalculator_coeffVT[ThermocoupleCalculator_FIRST_EL_MAS][Ther
 153:Generated_Source\PSoC4/ThermocoupleCalculator.c ****         }
 154:Generated_Source\PSoC4/ThermocoupleCalculator.c **** 
 155:Generated_Source\PSoC4/ThermocoupleCalculator.c ****         else if(voltage <= ThermocoupleCalculator_voltRange[ThermocoupleCalculator_RANGE_MAS_1] )
 156:Generated_Source\PSoC4/ThermocoupleCalculator.c ****         {
 157:Generated_Source\PSoC4/ThermocoupleCalculator.c ****             for (i=ThermocoupleCalculator_ORDER_VT - 1u; i > 0u; i--)
 158:Generated_Source\PSoC4/ThermocoupleCalculator.c ****             {
 159:Generated_Source\PSoC4/ThermocoupleCalculator.c ****                 temp = (temp + ThermocoupleCalculator_coeffVT[i][ThermocoupleCalculator_RANGE_MAS_1
 160:Generated_Source\PSoC4/ThermocoupleCalculator.c ****             }
 161:Generated_Source\PSoC4/ThermocoupleCalculator.c ****             temp = (temp + ThermocoupleCalculator_coeffVT[ThermocoupleCalculator_FIRST_EL_MAS][Ther
 162:Generated_Source\PSoC4/ThermocoupleCalculator.c ****         }
 163:Generated_Source\PSoC4/ThermocoupleCalculator.c **** 
 164:Generated_Source\PSoC4/ThermocoupleCalculator.c ****         else
 165:Generated_Source\PSoC4/ThermocoupleCalculator.c ****         {
 166:Generated_Source\PSoC4/ThermocoupleCalculator.c ****             for (i=ThermocoupleCalculator_ORDER_VT - 1u; i > 0u; i--)
 167:Generated_Source\PSoC4/ThermocoupleCalculator.c ****             {
 168:Generated_Source\PSoC4/ThermocoupleCalculator.c ****                 temp = (temp + ThermocoupleCalculator_coeffVT[i][ThermocoupleCalculator_RANGE_MAS_2
 169:Generated_Source\PSoC4/ThermocoupleCalculator.c ****             }
 170:Generated_Source\PSoC4/ThermocoupleCalculator.c ****             temp = (temp + ThermocoupleCalculator_coeffVT[ThermocoupleCalculator_FIRST_EL_MAS][Ther
 171:Generated_Source\PSoC4/ThermocoupleCalculator.c ****         }
 172:Generated_Source\PSoC4/ThermocoupleCalculator.c ****     }
 173:Generated_Source\PSoC4/ThermocoupleCalculator.c **** 
 174:Generated_Source\PSoC4/ThermocoupleCalculator.c ****     #endif /* End  ThermocoupleCalculator_VT_RANGE_LEN == ThermocoupleCalculator_THREE */
 175:Generated_Source\PSoC4/ThermocoupleCalculator.c **** 
 176:Generated_Source\PSoC4/ThermocoupleCalculator.c ****     return ((int32)(temp));
 177:Generated_Source\PSoC4/ThermocoupleCalculator.c **** }
 178:Generated_Source\PSoC4/ThermocoupleCalculator.c **** #else
 179:Generated_Source\PSoC4/ThermocoupleCalculator.c **** {
  93              		.loc 1 179 0
  94              		.cfi_startproc
  95              		@ args = 0, pretend = 0, frame = 72
  96              		@ frame_needed = 0, uses_anonymous_args = 0
  97              	.LVL11:
  98 0000 30B5     		push	{r4, r5, lr}
  99              		.cfi_def_cfa_offset 12
 100              		.cfi_offset 4, -12
 101              		.cfi_offset 5, -8
 102              		.cfi_offset 14, -4
 103 0002 93B0     		sub	sp, sp, #76
 104              		.cfi_def_cfa_offset 88
 105 0004 0400     		movs	r4, r0
 180:Generated_Source\PSoC4/ThermocoupleCalculator.c **** 
ARM GAS  C:\Users\freem\AppData\Local\Temp\ccCqoMXZ.s 			page 6


 181:Generated_Source\PSoC4/ThermocoupleCalculator.c ****     /***************************************
 182:Generated_Source\PSoC4/ThermocoupleCalculator.c ****     *  Customizer Generated Coefficients
 183:Generated_Source\PSoC4/ThermocoupleCalculator.c ****     ***************************************/
 184:Generated_Source\PSoC4/ThermocoupleCalculator.c ****     const int32 CYCODE ThermocoupleCalculator_coeffVT[][3] = {{675113, 565925, -13785657},
 106              		.loc 1 184 0
 107 0006 4822     		movs	r2, #72
 108 0008 3149     		ldr	r1, .L21
 109 000a 6846     		mov	r0, sp
 110              	.LVL12:
 111 000c FFF7FEFF 		bl	memcpy
 112              	.LVL13:
 185:Generated_Source\PSoC4/ThermocoupleCalculator.c ****                                                           {358257198, 325093793, 247382587},
 186:Generated_Source\PSoC4/ThermocoupleCalculator.c ****                                                           {85791428, -10286661, -180220095},
 187:Generated_Source\PSoC4/ThermocoupleCalculator.c ****                                                           {267517030, 75092971, 169309160},
 188:Generated_Source\PSoC4/ThermocoupleCalculator.c ****                                                           {240610908, -100723723, -75207091},
 189:Generated_Source\PSoC4/ThermocoupleCalculator.c ****                                                           {89458772, 37722436, 13834210}};
 190:Generated_Source\PSoC4/ThermocoupleCalculator.c **** 
 191:Generated_Source\PSoC4/ThermocoupleCalculator.c **** const int32 CYCODE ThermocoupleCalculator_voltRange[2] = {0, 20644};
 192:Generated_Source\PSoC4/ThermocoupleCalculator.c **** 
 193:Generated_Source\PSoC4/ThermocoupleCalculator.c **** const int8 CYCODE ThermocoupleCalculator_xScaleVT[3] = {12, 14, 15};
 194:Generated_Source\PSoC4/ThermocoupleCalculator.c **** const int8 CYCODE ThermocoupleCalculator_coefScaleVT[3] = {15, 13, 11};
 195:Generated_Source\PSoC4/ThermocoupleCalculator.c **** 
 196:Generated_Source\PSoC4/ThermocoupleCalculator.c ****     /* Variable to store temperature */
 197:Generated_Source\PSoC4/ThermocoupleCalculator.c ****     int32 temp=0;
 198:Generated_Source\PSoC4/ThermocoupleCalculator.c ****     uint8 i=0u;
 199:Generated_Source\PSoC4/ThermocoupleCalculator.c **** 
 200:Generated_Source\PSoC4/ThermocoupleCalculator.c ****     #if (ThermocoupleCalculator_VT_RANGE_LEN == ThermocoupleCalculator_THREE)
 201:Generated_Source\PSoC4/ThermocoupleCalculator.c ****     {
 202:Generated_Source\PSoC4/ThermocoupleCalculator.c ****         if(voltage < ThermocoupleCalculator_voltRange[ThermocoupleCalculator_RANGE_MAS_0] )
 203:Generated_Source\PSoC4/ThermocoupleCalculator.c ****         {
 204:Generated_Source\PSoC4/ThermocoupleCalculator.c ****             if (voltage < 0)
 205:Generated_Source\PSoC4/ThermocoupleCalculator.c ****             {
 206:Generated_Source\PSoC4/ThermocoupleCalculator.c ****                 voltage = -voltage;
 207:Generated_Source\PSoC4/ThermocoupleCalculator.c ****                 voltage = (int32)((uint64)((uint64)voltage << 
 208:Generated_Source\PSoC4/ThermocoupleCalculator.c ****                                                (ThermocoupleCalculator_IN_NORMALIZATION_VT - 
 209:Generated_Source\PSoC4/ThermocoupleCalculator.c ****                                                 ThermocoupleCalculator_xScaleVT[ThermocoupleCalcula
 210:Generated_Source\PSoC4/ThermocoupleCalculator.c ****                 voltage = -voltage;
 211:Generated_Source\PSoC4/ThermocoupleCalculator.c ****             }
 212:Generated_Source\PSoC4/ThermocoupleCalculator.c ****             else
 213:Generated_Source\PSoC4/ThermocoupleCalculator.c ****             {
 214:Generated_Source\PSoC4/ThermocoupleCalculator.c ****                 voltage = (int32)((uint64)((uint64)voltage << 
 215:Generated_Source\PSoC4/ThermocoupleCalculator.c ****                                                (ThermocoupleCalculator_IN_NORMALIZATION_VT - 
 216:Generated_Source\PSoC4/ThermocoupleCalculator.c ****                                                 ThermocoupleCalculator_xScaleVT[ThermocoupleCalcula
 217:Generated_Source\PSoC4/ThermocoupleCalculator.c ****             }            
 218:Generated_Source\PSoC4/ThermocoupleCalculator.c **** 
 219:Generated_Source\PSoC4/ThermocoupleCalculator.c ****             for (i=ThermocoupleCalculator_ORDER_VT - 1u; i > 0u; i--)
 220:Generated_Source\PSoC4/ThermocoupleCalculator.c ****             {
 221:Generated_Source\PSoC4/ThermocoupleCalculator.c ****                 temp = ThermocoupleCalculator_MultShift24((ThermocoupleCalculator_coeffVT[i][Thermo
 222:Generated_Source\PSoC4/ThermocoupleCalculator.c ****                        temp), voltage);
 223:Generated_Source\PSoC4/ThermocoupleCalculator.c ****             }
 224:Generated_Source\PSoC4/ThermocoupleCalculator.c **** 
 225:Generated_Source\PSoC4/ThermocoupleCalculator.c ****             if(ThermocoupleCalculator_coefScaleVT[ThermocoupleCalculator_RANGE_MAS_0] < 0)
 226:Generated_Source\PSoC4/ThermocoupleCalculator.c ****             {
 227:Generated_Source\PSoC4/ThermocoupleCalculator.c ****                 temp = (int32)((uint64)((uint64)(int32)(temp + 
 228:Generated_Source\PSoC4/ThermocoupleCalculator.c ****                         ThermocoupleCalculator_coeffVT[ThermocoupleCalculator_FIRST_EL_MAS][Thermoc
 229:Generated_Source\PSoC4/ThermocoupleCalculator.c ****                         ThermocoupleCalculator_coefScaleVT[ThermocoupleCalculator_RANGE_MAS_0]));
 230:Generated_Source\PSoC4/ThermocoupleCalculator.c ****             }
ARM GAS  C:\Users\freem\AppData\Local\Temp\ccCqoMXZ.s 			page 7


 231:Generated_Source\PSoC4/ThermocoupleCalculator.c **** 
 232:Generated_Source\PSoC4/ThermocoupleCalculator.c ****             else
 233:Generated_Source\PSoC4/ThermocoupleCalculator.c ****             {
 234:Generated_Source\PSoC4/ThermocoupleCalculator.c ****                 temp = (int32)((uint32)((uint64)(int32)(temp + 
 235:Generated_Source\PSoC4/ThermocoupleCalculator.c ****                         ThermocoupleCalculator_coeffVT[ThermocoupleCalculator_FIRST_EL_MAS][Thermoc
 236:Generated_Source\PSoC4/ThermocoupleCalculator.c ****                         ThermocoupleCalculator_coefScaleVT[ThermocoupleCalculator_RANGE_MAS_0]));
 237:Generated_Source\PSoC4/ThermocoupleCalculator.c ****             }
 238:Generated_Source\PSoC4/ThermocoupleCalculator.c ****         }
 239:Generated_Source\PSoC4/ThermocoupleCalculator.c **** 
 240:Generated_Source\PSoC4/ThermocoupleCalculator.c ****         else if(voltage <= ThermocoupleCalculator_voltRange[ThermocoupleCalculator_RANGE_MAS_1] )
 241:Generated_Source\PSoC4/ThermocoupleCalculator.c ****         {
 242:Generated_Source\PSoC4/ThermocoupleCalculator.c ****             if (voltage < 0)
 243:Generated_Source\PSoC4/ThermocoupleCalculator.c ****             {
 244:Generated_Source\PSoC4/ThermocoupleCalculator.c ****                 voltage = -voltage;
 245:Generated_Source\PSoC4/ThermocoupleCalculator.c ****                 voltage = (int32)((uint64)((uint64)voltage << 
 246:Generated_Source\PSoC4/ThermocoupleCalculator.c ****                                                (ThermocoupleCalculator_IN_NORMALIZATION_VT - 
 247:Generated_Source\PSoC4/ThermocoupleCalculator.c ****                                                 ThermocoupleCalculator_xScaleVT[ThermocoupleCalcula
 248:Generated_Source\PSoC4/ThermocoupleCalculator.c ****                 voltage = -voltage;
 249:Generated_Source\PSoC4/ThermocoupleCalculator.c ****             }
 250:Generated_Source\PSoC4/ThermocoupleCalculator.c ****             else
 251:Generated_Source\PSoC4/ThermocoupleCalculator.c ****             {
 252:Generated_Source\PSoC4/ThermocoupleCalculator.c ****                 voltage = (int32)((uint64)((uint64)voltage << 
 253:Generated_Source\PSoC4/ThermocoupleCalculator.c ****                                                (ThermocoupleCalculator_IN_NORMALIZATION_VT - 
 254:Generated_Source\PSoC4/ThermocoupleCalculator.c ****                                                 ThermocoupleCalculator_xScaleVT[ThermocoupleCalcula
 255:Generated_Source\PSoC4/ThermocoupleCalculator.c ****             }              
 256:Generated_Source\PSoC4/ThermocoupleCalculator.c ****             
 257:Generated_Source\PSoC4/ThermocoupleCalculator.c ****             for (i=ThermocoupleCalculator_ORDER_VT - 1u; i > 0u; i--)
 258:Generated_Source\PSoC4/ThermocoupleCalculator.c ****             {
 259:Generated_Source\PSoC4/ThermocoupleCalculator.c ****                 temp = ThermocoupleCalculator_MultShift24((ThermocoupleCalculator_coeffVT[i][Thermo
 260:Generated_Source\PSoC4/ThermocoupleCalculator.c ****                        temp), voltage);
 261:Generated_Source\PSoC4/ThermocoupleCalculator.c ****             }
 262:Generated_Source\PSoC4/ThermocoupleCalculator.c **** 
 263:Generated_Source\PSoC4/ThermocoupleCalculator.c ****             if(ThermocoupleCalculator_coefScaleVT[ThermocoupleCalculator_RANGE_MAS_1] < 0)
 264:Generated_Source\PSoC4/ThermocoupleCalculator.c ****             {
 265:Generated_Source\PSoC4/ThermocoupleCalculator.c ****                 temp = (int32)((uint64)((uint64)(int32)(temp + 
 266:Generated_Source\PSoC4/ThermocoupleCalculator.c ****                         ThermocoupleCalculator_coeffVT[ThermocoupleCalculator_FIRST_EL_MAS][Thermoc
 267:Generated_Source\PSoC4/ThermocoupleCalculator.c ****                         ThermocoupleCalculator_coefScaleVT[ThermocoupleCalculator_RANGE_MAS_1]));
 268:Generated_Source\PSoC4/ThermocoupleCalculator.c ****             }
 269:Generated_Source\PSoC4/ThermocoupleCalculator.c **** 
 270:Generated_Source\PSoC4/ThermocoupleCalculator.c ****             else
 271:Generated_Source\PSoC4/ThermocoupleCalculator.c ****             {
 272:Generated_Source\PSoC4/ThermocoupleCalculator.c ****                 temp = (int32)((uint32)((uint64)(int32)(temp + 
 273:Generated_Source\PSoC4/ThermocoupleCalculator.c ****                         ThermocoupleCalculator_coeffVT[ThermocoupleCalculator_FIRST_EL_MAS][Thermoc
 274:Generated_Source\PSoC4/ThermocoupleCalculator.c ****                         ThermocoupleCalculator_coefScaleVT[ThermocoupleCalculator_RANGE_MAS_1]));
 275:Generated_Source\PSoC4/ThermocoupleCalculator.c ****             }
 276:Generated_Source\PSoC4/ThermocoupleCalculator.c **** 
 277:Generated_Source\PSoC4/ThermocoupleCalculator.c ****         }
 278:Generated_Source\PSoC4/ThermocoupleCalculator.c **** 
 279:Generated_Source\PSoC4/ThermocoupleCalculator.c ****         else if(voltage <= ThermocoupleCalculator_voltRange[ThermocoupleCalculator_RANGE_MAS_2] )
 280:Generated_Source\PSoC4/ThermocoupleCalculator.c ****         {
 281:Generated_Source\PSoC4/ThermocoupleCalculator.c ****             if (voltage < 0)
 282:Generated_Source\PSoC4/ThermocoupleCalculator.c ****             {
 283:Generated_Source\PSoC4/ThermocoupleCalculator.c ****                 voltage = -voltage;
 284:Generated_Source\PSoC4/ThermocoupleCalculator.c ****                 voltage = (int32)((uint64)((uint64)voltage << 
 285:Generated_Source\PSoC4/ThermocoupleCalculator.c ****                                                (ThermocoupleCalculator_IN_NORMALIZATION_VT - 
 286:Generated_Source\PSoC4/ThermocoupleCalculator.c ****                                                 ThermocoupleCalculator_xScaleVT[ThermocoupleCalcula
 287:Generated_Source\PSoC4/ThermocoupleCalculator.c ****                 voltage = -voltage;
ARM GAS  C:\Users\freem\AppData\Local\Temp\ccCqoMXZ.s 			page 8


 288:Generated_Source\PSoC4/ThermocoupleCalculator.c ****             }
 289:Generated_Source\PSoC4/ThermocoupleCalculator.c ****             else
 290:Generated_Source\PSoC4/ThermocoupleCalculator.c ****             {
 291:Generated_Source\PSoC4/ThermocoupleCalculator.c ****                 voltage = (int32)((uint64)((uint64)voltage << 
 292:Generated_Source\PSoC4/ThermocoupleCalculator.c ****                                                (ThermocoupleCalculator_IN_NORMALIZATION_VT - 
 293:Generated_Source\PSoC4/ThermocoupleCalculator.c ****                                                 ThermocoupleCalculator_xScaleVT[ThermocoupleCalcula
 294:Generated_Source\PSoC4/ThermocoupleCalculator.c ****             }              
 295:Generated_Source\PSoC4/ThermocoupleCalculator.c **** 
 296:Generated_Source\PSoC4/ThermocoupleCalculator.c ****             for (i=ThermocoupleCalculator_ORDER_VT - 1u; i > 0u; i--)
 297:Generated_Source\PSoC4/ThermocoupleCalculator.c ****             {
 298:Generated_Source\PSoC4/ThermocoupleCalculator.c ****                 temp = ThermocoupleCalculator_MultShift24((ThermocoupleCalculator_coeffVT[i][Thermo
 299:Generated_Source\PSoC4/ThermocoupleCalculator.c ****                        temp), voltage);
 300:Generated_Source\PSoC4/ThermocoupleCalculator.c ****             }
 301:Generated_Source\PSoC4/ThermocoupleCalculator.c **** 
 302:Generated_Source\PSoC4/ThermocoupleCalculator.c ****             if(ThermocoupleCalculator_coefScaleVT[ThermocoupleCalculator_RANGE_MAS_2] < 0)
 303:Generated_Source\PSoC4/ThermocoupleCalculator.c ****             {
 304:Generated_Source\PSoC4/ThermocoupleCalculator.c ****                 temp = (int32)((uint64)((uint64)(int32)(temp + 
 305:Generated_Source\PSoC4/ThermocoupleCalculator.c ****                         ThermocoupleCalculator_coeffVT[ThermocoupleCalculator_FIRST_EL_MAS][Thermoc
 306:Generated_Source\PSoC4/ThermocoupleCalculator.c ****                         ThermocoupleCalculator_coefScaleVT[ThermocoupleCalculator_RANGE_MAS_2]));
 307:Generated_Source\PSoC4/ThermocoupleCalculator.c ****             }
 308:Generated_Source\PSoC4/ThermocoupleCalculator.c **** 
 309:Generated_Source\PSoC4/ThermocoupleCalculator.c ****             else
 310:Generated_Source\PSoC4/ThermocoupleCalculator.c ****             {
 311:Generated_Source\PSoC4/ThermocoupleCalculator.c ****                 temp = (int32)((uint32)((uint64)(int32)(temp + 
 312:Generated_Source\PSoC4/ThermocoupleCalculator.c ****                         ThermocoupleCalculator_coeffVT[ThermocoupleCalculator_FIRST_EL_MAS][Thermoc
 313:Generated_Source\PSoC4/ThermocoupleCalculator.c ****                         ThermocoupleCalculator_coefScaleVT[ThermocoupleCalculator_RANGE_MAS_2]));
 314:Generated_Source\PSoC4/ThermocoupleCalculator.c ****             }
 315:Generated_Source\PSoC4/ThermocoupleCalculator.c ****         }
 316:Generated_Source\PSoC4/ThermocoupleCalculator.c **** 
 317:Generated_Source\PSoC4/ThermocoupleCalculator.c ****         else
 318:Generated_Source\PSoC4/ThermocoupleCalculator.c ****         {
 319:Generated_Source\PSoC4/ThermocoupleCalculator.c ****             if (voltage < 0)
 320:Generated_Source\PSoC4/ThermocoupleCalculator.c ****             {
 321:Generated_Source\PSoC4/ThermocoupleCalculator.c ****                 voltage = -voltage;
 322:Generated_Source\PSoC4/ThermocoupleCalculator.c ****                 voltage = (int32)((uint64)((uint64)voltage << 
 323:Generated_Source\PSoC4/ThermocoupleCalculator.c ****                                                (ThermocoupleCalculator_IN_NORMALIZATION_VT - 
 324:Generated_Source\PSoC4/ThermocoupleCalculator.c ****                                                 ThermocoupleCalculator_xScaleVT[ThermocoupleCalcula
 325:Generated_Source\PSoC4/ThermocoupleCalculator.c ****                 voltage = -voltage;
 326:Generated_Source\PSoC4/ThermocoupleCalculator.c ****             }
 327:Generated_Source\PSoC4/ThermocoupleCalculator.c ****             else
 328:Generated_Source\PSoC4/ThermocoupleCalculator.c ****             {
 329:Generated_Source\PSoC4/ThermocoupleCalculator.c ****                 voltage = (int32)((uint64)((uint64)voltage << 
 330:Generated_Source\PSoC4/ThermocoupleCalculator.c ****                                                (ThermocoupleCalculator_IN_NORMALIZATION_VT - 
 331:Generated_Source\PSoC4/ThermocoupleCalculator.c ****                                                 ThermocoupleCalculator_xScaleVT[ThermocoupleCalcula
 332:Generated_Source\PSoC4/ThermocoupleCalculator.c ****             }              
 333:Generated_Source\PSoC4/ThermocoupleCalculator.c **** 
 334:Generated_Source\PSoC4/ThermocoupleCalculator.c ****             for (i=ThermocoupleCalculator_ORDER_VT - 1u; i > 0u; i--)
 335:Generated_Source\PSoC4/ThermocoupleCalculator.c ****             {
 336:Generated_Source\PSoC4/ThermocoupleCalculator.c ****                 temp = ThermocoupleCalculator_MultShift24((ThermocoupleCalculator_coeffVT[i][Thermo
 337:Generated_Source\PSoC4/ThermocoupleCalculator.c ****                        temp), voltage);
 338:Generated_Source\PSoC4/ThermocoupleCalculator.c ****             }
 339:Generated_Source\PSoC4/ThermocoupleCalculator.c **** 
 340:Generated_Source\PSoC4/ThermocoupleCalculator.c ****             if(ThermocoupleCalculator_coefScaleVT[ThermocoupleCalculator_RANGE_MAS_3] < 0)
 341:Generated_Source\PSoC4/ThermocoupleCalculator.c ****             {
 342:Generated_Source\PSoC4/ThermocoupleCalculator.c ****                 temp = (int32)((uint64)((uint64)(int32)(temp + 
 343:Generated_Source\PSoC4/ThermocoupleCalculator.c ****                         ThermocoupleCalculator_coeffVT[ThermocoupleCalculator_FIRST_EL_MAS][Thermoc
 344:Generated_Source\PSoC4/ThermocoupleCalculator.c ****                         ThermocoupleCalculator_coefScaleVT[ThermocoupleCalculator_RANGE_MAS_3]));
ARM GAS  C:\Users\freem\AppData\Local\Temp\ccCqoMXZ.s 			page 9


 345:Generated_Source\PSoC4/ThermocoupleCalculator.c ****             }
 346:Generated_Source\PSoC4/ThermocoupleCalculator.c **** 
 347:Generated_Source\PSoC4/ThermocoupleCalculator.c ****             else
 348:Generated_Source\PSoC4/ThermocoupleCalculator.c ****             {
 349:Generated_Source\PSoC4/ThermocoupleCalculator.c ****                 temp = (int32)((uint32)((uint64)(int32)(temp + 
 350:Generated_Source\PSoC4/ThermocoupleCalculator.c ****                         ThermocoupleCalculator_coeffVT[ThermocoupleCalculator_FIRST_EL_MAS][Thermoc
 351:Generated_Source\PSoC4/ThermocoupleCalculator.c ****                         ThermocoupleCalculator_coefScaleVT[ThermocoupleCalculator_RANGE_MAS_3]));
 352:Generated_Source\PSoC4/ThermocoupleCalculator.c ****             }
 353:Generated_Source\PSoC4/ThermocoupleCalculator.c ****         }
 354:Generated_Source\PSoC4/ThermocoupleCalculator.c ****     }
 355:Generated_Source\PSoC4/ThermocoupleCalculator.c **** 
 356:Generated_Source\PSoC4/ThermocoupleCalculator.c ****     #else
 357:Generated_Source\PSoC4/ThermocoupleCalculator.c ****     {
 358:Generated_Source\PSoC4/ThermocoupleCalculator.c ****         if(voltage < ThermocoupleCalculator_voltRange[ThermocoupleCalculator_RANGE_MAS_0] )
 113              		.loc 1 358 0
 114 0010 002C     		cmp	r4, #0
 115 0012 1CDA     		bge	.L6
 359:Generated_Source\PSoC4/ThermocoupleCalculator.c ****         {
 360:Generated_Source\PSoC4/ThermocoupleCalculator.c ****             if (voltage < 0)
 116              		.loc 1 360 0
 117 0014 03DA     		bge	.L7
 361:Generated_Source\PSoC4/ThermocoupleCalculator.c ****             {
 362:Generated_Source\PSoC4/ThermocoupleCalculator.c ****                 voltage = -voltage;
 118              		.loc 1 362 0
 119 0016 6442     		rsbs	r4, r4, #0
 120              	.LVL14:
 363:Generated_Source\PSoC4/ThermocoupleCalculator.c ****                 voltage = (int32)((uint64)((uint64)voltage << 
 121              		.loc 1 363 0
 122 0018 2403     		lsls	r4, r4, #12
 123              	.LVL15:
 364:Generated_Source\PSoC4/ThermocoupleCalculator.c ****                                                (ThermocoupleCalculator_IN_NORMALIZATION_VT - 
 365:Generated_Source\PSoC4/ThermocoupleCalculator.c ****                                                 ThermocoupleCalculator_xScaleVT[ThermocoupleCalcula
 366:Generated_Source\PSoC4/ThermocoupleCalculator.c ****                 voltage = -voltage;
 124              		.loc 1 366 0
 125 001a 6542     		rsbs	r5, r4, #0
 126              	.LVL16:
 127 001c 00E0     		b	.L8
 128              	.LVL17:
 129              	.L7:
 367:Generated_Source\PSoC4/ThermocoupleCalculator.c ****             }
 368:Generated_Source\PSoC4/ThermocoupleCalculator.c ****             else
 369:Generated_Source\PSoC4/ThermocoupleCalculator.c ****             {
 370:Generated_Source\PSoC4/ThermocoupleCalculator.c ****                 voltage = (int32)((uint64)((uint64)voltage << 
 130              		.loc 1 370 0
 131 001e 2503     		lsls	r5, r4, #12
 132              	.LVL18:
 133              	.L8:
 371:Generated_Source\PSoC4/ThermocoupleCalculator.c ****                                                (ThermocoupleCalculator_IN_NORMALIZATION_VT - 
 372:Generated_Source\PSoC4/ThermocoupleCalculator.c ****                                                 ThermocoupleCalculator_xScaleVT[ThermocoupleCalcula
 373:Generated_Source\PSoC4/ThermocoupleCalculator.c ****             }            
 374:Generated_Source\PSoC4/ThermocoupleCalculator.c **** 
 375:Generated_Source\PSoC4/ThermocoupleCalculator.c ****             for (i=ThermocoupleCalculator_ORDER_VT - 1u; i > 0u; i--)
 134              		.loc 1 375 0
 135 0020 0524     		movs	r4, #5
 197:Generated_Source\PSoC4/ThermocoupleCalculator.c ****     uint8 i=0u;
 136              		.loc 1 197 0
 137 0022 0020     		movs	r0, #0
ARM GAS  C:\Users\freem\AppData\Local\Temp\ccCqoMXZ.s 			page 10


 138              		.loc 1 375 0
 139 0024 0AE0     		b	.L9
 140              	.LVL19:
 141              	.L10:
 376:Generated_Source\PSoC4/ThermocoupleCalculator.c ****             {
 377:Generated_Source\PSoC4/ThermocoupleCalculator.c ****                 temp = ThermocoupleCalculator_MultShift24((ThermocoupleCalculator_coeffVT[i][Thermo
 142              		.loc 1 377 0 discriminator 3
 143 0026 6300     		lsls	r3, r4, #1
 144 0028 1B19     		adds	r3, r3, r4
 145 002a 9A00     		lsls	r2, r3, #2
 146 002c 6B46     		mov	r3, sp
 147 002e D358     		ldr	r3, [r2, r3]
 148 0030 C018     		adds	r0, r0, r3
 149              	.LVL20:
 150 0032 2900     		movs	r1, r5
 151 0034 FFF7FEFF 		bl	ThermocoupleCalculator_MultShift24
 152              	.LVL21:
 375:Generated_Source\PSoC4/ThermocoupleCalculator.c ****             {
 153              		.loc 1 375 0 discriminator 3
 154 0038 013C     		subs	r4, r4, #1
 155              	.LVL22:
 156 003a E4B2     		uxtb	r4, r4
 157              	.LVL23:
 158              	.L9:
 375:Generated_Source\PSoC4/ThermocoupleCalculator.c ****             {
 159              		.loc 1 375 0 is_stmt 0 discriminator 1
 160 003c 002C     		cmp	r4, #0
 161 003e F2D1     		bne	.L10
 378:Generated_Source\PSoC4/ThermocoupleCalculator.c ****                        temp), voltage);
 379:Generated_Source\PSoC4/ThermocoupleCalculator.c ****             }
 380:Generated_Source\PSoC4/ThermocoupleCalculator.c **** 
 381:Generated_Source\PSoC4/ThermocoupleCalculator.c ****             if(ThermocoupleCalculator_coefScaleVT[ThermocoupleCalculator_RANGE_MAS_0] < 0)
 382:Generated_Source\PSoC4/ThermocoupleCalculator.c ****             {
 383:Generated_Source\PSoC4/ThermocoupleCalculator.c ****                 temp = (int32)((uint64)((uint64)(int32)(temp + 
 384:Generated_Source\PSoC4/ThermocoupleCalculator.c ****                         ThermocoupleCalculator_coeffVT[ThermocoupleCalculator_FIRST_EL_MAS][Thermoc
 385:Generated_Source\PSoC4/ThermocoupleCalculator.c ****                         ThermocoupleCalculator_coefScaleVT[ThermocoupleCalculator_RANGE_MAS_0]));
 386:Generated_Source\PSoC4/ThermocoupleCalculator.c ****             }
 387:Generated_Source\PSoC4/ThermocoupleCalculator.c **** 
 388:Generated_Source\PSoC4/ThermocoupleCalculator.c ****             else
 389:Generated_Source\PSoC4/ThermocoupleCalculator.c ****             {
 390:Generated_Source\PSoC4/ThermocoupleCalculator.c ****                 temp = (int32)((uint32)((uint64)(int32)(temp + 
 162              		.loc 1 390 0 is_stmt 1
 163 0040 244B     		ldr	r3, .L21+4
 164 0042 C318     		adds	r3, r0, r3
 165 0044 D817     		asrs	r0, r3, #31
 166              	.LVL24:
 391:Generated_Source\PSoC4/ThermocoupleCalculator.c ****                         ThermocoupleCalculator_coeffVT[ThermocoupleCalculator_FIRST_EL_MAS][Thermoc
 167              		.loc 1 391 0
 168 0046 4004     		lsls	r0, r0, #17
 169 0048 DB0B     		lsrs	r3, r3, #15
 170              	.LVL25:
 171 004a 1843     		orrs	r0, r3
 172              	.LVL26:
 173 004c 3DE0     		b	.L11
 174              	.LVL27:
 175              	.L6:
 392:Generated_Source\PSoC4/ThermocoupleCalculator.c ****                         ThermocoupleCalculator_coefScaleVT[ThermocoupleCalculator_RANGE_MAS_0]));
ARM GAS  C:\Users\freem\AppData\Local\Temp\ccCqoMXZ.s 			page 11


 393:Generated_Source\PSoC4/ThermocoupleCalculator.c ****             }
 394:Generated_Source\PSoC4/ThermocoupleCalculator.c ****         }
 395:Generated_Source\PSoC4/ThermocoupleCalculator.c **** 
 396:Generated_Source\PSoC4/ThermocoupleCalculator.c ****         else if(voltage <= ThermocoupleCalculator_voltRange[ThermocoupleCalculator_RANGE_MAS_1] )
 176              		.loc 1 396 0
 177 004e 224B     		ldr	r3, .L21+8
 178 0050 9C42     		cmp	r4, r3
 179 0052 1DDC     		bgt	.L12
 397:Generated_Source\PSoC4/ThermocoupleCalculator.c ****         {
 398:Generated_Source\PSoC4/ThermocoupleCalculator.c ****             if (voltage < 0)
 180              		.loc 1 398 0
 181 0054 002C     		cmp	r4, #0
 182 0056 03DA     		bge	.L13
 399:Generated_Source\PSoC4/ThermocoupleCalculator.c ****             {
 400:Generated_Source\PSoC4/ThermocoupleCalculator.c ****                 voltage = -voltage;
 183              		.loc 1 400 0
 184 0058 6442     		rsbs	r4, r4, #0
 185              	.LVL28:
 401:Generated_Source\PSoC4/ThermocoupleCalculator.c ****                 voltage = (int32)((uint64)((uint64)voltage << 
 186              		.loc 1 401 0
 187 005a A402     		lsls	r4, r4, #10
 188              	.LVL29:
 402:Generated_Source\PSoC4/ThermocoupleCalculator.c ****                                                (ThermocoupleCalculator_IN_NORMALIZATION_VT - 
 403:Generated_Source\PSoC4/ThermocoupleCalculator.c ****                                                 ThermocoupleCalculator_xScaleVT[ThermocoupleCalcula
 404:Generated_Source\PSoC4/ThermocoupleCalculator.c ****                 voltage = -voltage;
 189              		.loc 1 404 0
 190 005c 6542     		rsbs	r5, r4, #0
 191              	.LVL30:
 192 005e 00E0     		b	.L14
 193              	.LVL31:
 194              	.L13:
 405:Generated_Source\PSoC4/ThermocoupleCalculator.c ****             }
 406:Generated_Source\PSoC4/ThermocoupleCalculator.c ****             else
 407:Generated_Source\PSoC4/ThermocoupleCalculator.c ****             {
 408:Generated_Source\PSoC4/ThermocoupleCalculator.c ****                 voltage = (int32)((uint64)((uint64)voltage << 
 195              		.loc 1 408 0
 196 0060 A502     		lsls	r5, r4, #10
 197              	.LVL32:
 198              	.L14:
 409:Generated_Source\PSoC4/ThermocoupleCalculator.c ****                                                (ThermocoupleCalculator_IN_NORMALIZATION_VT - 
 410:Generated_Source\PSoC4/ThermocoupleCalculator.c ****                                                 ThermocoupleCalculator_xScaleVT[ThermocoupleCalcula
 411:Generated_Source\PSoC4/ThermocoupleCalculator.c ****             }              
 412:Generated_Source\PSoC4/ThermocoupleCalculator.c ****             
 413:Generated_Source\PSoC4/ThermocoupleCalculator.c ****             for (i=ThermocoupleCalculator_ORDER_VT - 1u; i > 0u; i--)
 199              		.loc 1 413 0
 200 0062 0524     		movs	r4, #5
 197:Generated_Source\PSoC4/ThermocoupleCalculator.c ****     uint8 i=0u;
 201              		.loc 1 197 0
 202 0064 0020     		movs	r0, #0
 203              		.loc 1 413 0
 204 0066 0AE0     		b	.L15
 205              	.LVL33:
 206              	.L16:
 414:Generated_Source\PSoC4/ThermocoupleCalculator.c ****             {
 415:Generated_Source\PSoC4/ThermocoupleCalculator.c ****                 temp = ThermocoupleCalculator_MultShift24((ThermocoupleCalculator_coeffVT[i][Thermo
 207              		.loc 1 415 0 discriminator 3
 208 0068 6200     		lsls	r2, r4, #1
ARM GAS  C:\Users\freem\AppData\Local\Temp\ccCqoMXZ.s 			page 12


 209 006a 1219     		adds	r2, r2, r4
 210 006c 9300     		lsls	r3, r2, #2
 211 006e 6B44     		add	r3, r3, sp
 212 0070 5B68     		ldr	r3, [r3, #4]
 213 0072 C018     		adds	r0, r0, r3
 214              	.LVL34:
 215 0074 2900     		movs	r1, r5
 216 0076 FFF7FEFF 		bl	ThermocoupleCalculator_MultShift24
 217              	.LVL35:
 413:Generated_Source\PSoC4/ThermocoupleCalculator.c ****             {
 218              		.loc 1 413 0 discriminator 3
 219 007a 013C     		subs	r4, r4, #1
 220              	.LVL36:
 221 007c E4B2     		uxtb	r4, r4
 222              	.LVL37:
 223              	.L15:
 413:Generated_Source\PSoC4/ThermocoupleCalculator.c ****             {
 224              		.loc 1 413 0 is_stmt 0 discriminator 1
 225 007e 002C     		cmp	r4, #0
 226 0080 F2D1     		bne	.L16
 416:Generated_Source\PSoC4/ThermocoupleCalculator.c ****                        temp), voltage);
 417:Generated_Source\PSoC4/ThermocoupleCalculator.c ****             }
 418:Generated_Source\PSoC4/ThermocoupleCalculator.c **** 
 419:Generated_Source\PSoC4/ThermocoupleCalculator.c ****             if(ThermocoupleCalculator_coefScaleVT[ThermocoupleCalculator_RANGE_MAS_1] < 0)
 420:Generated_Source\PSoC4/ThermocoupleCalculator.c ****             {
 421:Generated_Source\PSoC4/ThermocoupleCalculator.c ****                 temp = (int32)((uint64)((uint64)(int32)(temp + 
 422:Generated_Source\PSoC4/ThermocoupleCalculator.c ****                         ThermocoupleCalculator_coeffVT[ThermocoupleCalculator_FIRST_EL_MAS][Thermoc
 423:Generated_Source\PSoC4/ThermocoupleCalculator.c ****                         ThermocoupleCalculator_coefScaleVT[ThermocoupleCalculator_RANGE_MAS_1]));
 424:Generated_Source\PSoC4/ThermocoupleCalculator.c ****             }
 425:Generated_Source\PSoC4/ThermocoupleCalculator.c **** 
 426:Generated_Source\PSoC4/ThermocoupleCalculator.c ****             else
 427:Generated_Source\PSoC4/ThermocoupleCalculator.c ****             {
 428:Generated_Source\PSoC4/ThermocoupleCalculator.c ****                 temp = (int32)((uint32)((uint64)(int32)(temp + 
 227              		.loc 1 428 0 is_stmt 1
 228 0082 164B     		ldr	r3, .L21+12
 229 0084 C318     		adds	r3, r0, r3
 230 0086 D817     		asrs	r0, r3, #31
 231              	.LVL38:
 429:Generated_Source\PSoC4/ThermocoupleCalculator.c ****                         ThermocoupleCalculator_coeffVT[ThermocoupleCalculator_FIRST_EL_MAS][Thermoc
 232              		.loc 1 429 0
 233 0088 C004     		lsls	r0, r0, #19
 234 008a 5B0B     		lsrs	r3, r3, #13
 235              	.LVL39:
 236 008c 1843     		orrs	r0, r3
 237              	.LVL40:
 238 008e 1CE0     		b	.L11
 239              	.LVL41:
 240              	.L12:
 430:Generated_Source\PSoC4/ThermocoupleCalculator.c ****                         ThermocoupleCalculator_coefScaleVT[ThermocoupleCalculator_RANGE_MAS_1]));
 431:Generated_Source\PSoC4/ThermocoupleCalculator.c ****             }
 432:Generated_Source\PSoC4/ThermocoupleCalculator.c ****         }
 433:Generated_Source\PSoC4/ThermocoupleCalculator.c **** 
 434:Generated_Source\PSoC4/ThermocoupleCalculator.c ****         else
 435:Generated_Source\PSoC4/ThermocoupleCalculator.c ****         {
 436:Generated_Source\PSoC4/ThermocoupleCalculator.c ****             if (voltage < 0)
 241              		.loc 1 436 0
 242 0090 002C     		cmp	r4, #0
ARM GAS  C:\Users\freem\AppData\Local\Temp\ccCqoMXZ.s 			page 13


 243 0092 03DA     		bge	.L17
 437:Generated_Source\PSoC4/ThermocoupleCalculator.c ****             {
 438:Generated_Source\PSoC4/ThermocoupleCalculator.c ****                 voltage = -voltage;
 244              		.loc 1 438 0
 245 0094 6442     		rsbs	r4, r4, #0
 246              	.LVL42:
 439:Generated_Source\PSoC4/ThermocoupleCalculator.c ****                 voltage = (int32)((uint64)((uint64)voltage << 
 247              		.loc 1 439 0
 248 0096 6402     		lsls	r4, r4, #9
 249              	.LVL43:
 440:Generated_Source\PSoC4/ThermocoupleCalculator.c ****                                                (ThermocoupleCalculator_IN_NORMALIZATION_VT - 
 441:Generated_Source\PSoC4/ThermocoupleCalculator.c ****                                                 ThermocoupleCalculator_xScaleVT[ThermocoupleCalcula
 442:Generated_Source\PSoC4/ThermocoupleCalculator.c ****                 voltage = -voltage;
 250              		.loc 1 442 0
 251 0098 6542     		rsbs	r5, r4, #0
 252              	.LVL44:
 253 009a 00E0     		b	.L18
 254              	.LVL45:
 255              	.L17:
 443:Generated_Source\PSoC4/ThermocoupleCalculator.c ****             }
 444:Generated_Source\PSoC4/ThermocoupleCalculator.c ****             else
 445:Generated_Source\PSoC4/ThermocoupleCalculator.c ****             {
 446:Generated_Source\PSoC4/ThermocoupleCalculator.c ****                 voltage = (int32)((uint64)((uint64)voltage << 
 256              		.loc 1 446 0
 257 009c 6502     		lsls	r5, r4, #9
 258              	.LVL46:
 259              	.L18:
 447:Generated_Source\PSoC4/ThermocoupleCalculator.c ****                                                (ThermocoupleCalculator_IN_NORMALIZATION_VT - 
 448:Generated_Source\PSoC4/ThermocoupleCalculator.c ****                                                 ThermocoupleCalculator_xScaleVT[ThermocoupleCalcula
 449:Generated_Source\PSoC4/ThermocoupleCalculator.c ****             }              
 450:Generated_Source\PSoC4/ThermocoupleCalculator.c **** 
 451:Generated_Source\PSoC4/ThermocoupleCalculator.c ****             for (i=ThermocoupleCalculator_ORDER_VT - 1u; i > 0u; i--)
 260              		.loc 1 451 0
 261 009e 0524     		movs	r4, #5
 197:Generated_Source\PSoC4/ThermocoupleCalculator.c ****     uint8 i=0u;
 262              		.loc 1 197 0
 263 00a0 0020     		movs	r0, #0
 264              		.loc 1 451 0
 265 00a2 0AE0     		b	.L19
 266              	.LVL47:
 267              	.L20:
 452:Generated_Source\PSoC4/ThermocoupleCalculator.c ****             {
 453:Generated_Source\PSoC4/ThermocoupleCalculator.c ****                 temp = ThermocoupleCalculator_MultShift24((ThermocoupleCalculator_coeffVT[i][Thermo
 268              		.loc 1 453 0 discriminator 3
 269 00a4 6200     		lsls	r2, r4, #1
 270 00a6 1219     		adds	r2, r2, r4
 271 00a8 9300     		lsls	r3, r2, #2
 272 00aa 6B44     		add	r3, r3, sp
 273 00ac 9B68     		ldr	r3, [r3, #8]
 274 00ae C018     		adds	r0, r0, r3
 275              	.LVL48:
 276 00b0 2900     		movs	r1, r5
 277 00b2 FFF7FEFF 		bl	ThermocoupleCalculator_MultShift24
 278              	.LVL49:
 451:Generated_Source\PSoC4/ThermocoupleCalculator.c ****             {
 279              		.loc 1 451 0 discriminator 3
 280 00b6 013C     		subs	r4, r4, #1
ARM GAS  C:\Users\freem\AppData\Local\Temp\ccCqoMXZ.s 			page 14


 281              	.LVL50:
 282 00b8 E4B2     		uxtb	r4, r4
 283              	.LVL51:
 284              	.L19:
 451:Generated_Source\PSoC4/ThermocoupleCalculator.c ****             {
 285              		.loc 1 451 0 is_stmt 0 discriminator 1
 286 00ba 002C     		cmp	r4, #0
 287 00bc F2D1     		bne	.L20
 454:Generated_Source\PSoC4/ThermocoupleCalculator.c ****                        temp), voltage);
 455:Generated_Source\PSoC4/ThermocoupleCalculator.c ****             }
 456:Generated_Source\PSoC4/ThermocoupleCalculator.c **** 
 457:Generated_Source\PSoC4/ThermocoupleCalculator.c ****             if(ThermocoupleCalculator_coefScaleVT[ThermocoupleCalculator_RANGE_MAS_2] < 0)
 458:Generated_Source\PSoC4/ThermocoupleCalculator.c ****             {
 459:Generated_Source\PSoC4/ThermocoupleCalculator.c ****                 temp = (int32)((uint64)((uint64)(int32)(temp + 
 460:Generated_Source\PSoC4/ThermocoupleCalculator.c ****                         ThermocoupleCalculator_coeffVT[ThermocoupleCalculator_FIRST_EL_MAS][Thermoc
 461:Generated_Source\PSoC4/ThermocoupleCalculator.c ****                         ThermocoupleCalculator_coefScaleVT[ThermocoupleCalculator_RANGE_MAS_2]));
 462:Generated_Source\PSoC4/ThermocoupleCalculator.c ****             }
 463:Generated_Source\PSoC4/ThermocoupleCalculator.c **** 
 464:Generated_Source\PSoC4/ThermocoupleCalculator.c ****             else
 465:Generated_Source\PSoC4/ThermocoupleCalculator.c ****             {
 466:Generated_Source\PSoC4/ThermocoupleCalculator.c ****                 temp = (int32)((uint32)((uint64)(int32)(temp + 
 288              		.loc 1 466 0 is_stmt 1
 289 00be 084B     		ldr	r3, .L21+16
 290 00c0 C318     		adds	r3, r0, r3
 291 00c2 D817     		asrs	r0, r3, #31
 292              	.LVL52:
 467:Generated_Source\PSoC4/ThermocoupleCalculator.c ****                         ThermocoupleCalculator_coeffVT[ThermocoupleCalculator_FIRST_EL_MAS][Thermoc
 293              		.loc 1 467 0
 294 00c4 4005     		lsls	r0, r0, #21
 295 00c6 DB0A     		lsrs	r3, r3, #11
 296              	.LVL53:
 297 00c8 1843     		orrs	r0, r3
 298              	.LVL54:
 299              	.L11:
 468:Generated_Source\PSoC4/ThermocoupleCalculator.c ****                         ThermocoupleCalculator_coefScaleVT[ThermocoupleCalculator_RANGE_MAS_2]));
 469:Generated_Source\PSoC4/ThermocoupleCalculator.c ****             }
 470:Generated_Source\PSoC4/ThermocoupleCalculator.c ****         }
 471:Generated_Source\PSoC4/ThermocoupleCalculator.c ****     }
 472:Generated_Source\PSoC4/ThermocoupleCalculator.c **** 
 473:Generated_Source\PSoC4/ThermocoupleCalculator.c ****     #endif /* End ThermocoupleCalculator_VT_RANGE_LEN == ThermocoupleCalculator_THREE */
 474:Generated_Source\PSoC4/ThermocoupleCalculator.c **** 
 475:Generated_Source\PSoC4/ThermocoupleCalculator.c ****     return (temp);
 476:Generated_Source\PSoC4/ThermocoupleCalculator.c **** }
 300              		.loc 1 476 0
 301 00ca 13B0     		add	sp, sp, #76
 302              		@ sp needed
 303              	.LVL55:
 304              	.LVL56:
 305 00cc 30BD     		pop	{r4, r5, pc}
 306              	.L22:
 307 00ce C046     		.align	2
 308              	.L21:
 309 00d0 00000000 		.word	.LANCHOR0
 310 00d4 294D0A00 		.word	675113
 311 00d8 A4500000 		.word	20644
 312 00dc A5A20800 		.word	565925
 313 00e0 C7A52DFF 		.word	-13785657
ARM GAS  C:\Users\freem\AppData\Local\Temp\ccCqoMXZ.s 			page 15


 314              		.cfi_endproc
 315              	.LFE3:
 316              		.size	ThermocoupleCalculator_GetTemperature, .-ThermocoupleCalculator_GetTemperature
 317              		.section	.text.ThermocoupleCalculator_GetVoltage,"ax",%progbits
 318              		.align	2
 319              		.global	ThermocoupleCalculator_GetVoltage
 320              		.code	16
 321              		.thumb_func
 322              		.type	ThermocoupleCalculator_GetVoltage, %function
 323              	ThermocoupleCalculator_GetVoltage:
 324              	.LFB4:
 477:Generated_Source\PSoC4/ThermocoupleCalculator.c **** #endif /* End CY_PSOC3 */
 478:Generated_Source\PSoC4/ThermocoupleCalculator.c **** 
 479:Generated_Source\PSoC4/ThermocoupleCalculator.c **** 
 480:Generated_Source\PSoC4/ThermocoupleCalculator.c **** /*******************************************************************************
 481:Generated_Source\PSoC4/ThermocoupleCalculator.c **** * Function Name: ThermocoupleCalculator_GetVoltage
 482:Generated_Source\PSoC4/ThermocoupleCalculator.c **** ********************************************************************************
 483:Generated_Source\PSoC4/ThermocoupleCalculator.c **** *
 484:Generated_Source\PSoC4/ThermocoupleCalculator.c **** * Summary:
 485:Generated_Source\PSoC4/ThermocoupleCalculator.c **** *  This function takes the temperature as input and provides the expected
 486:Generated_Source\PSoC4/ThermocoupleCalculator.c **** *  voltage for that temperature.
 487:Generated_Source\PSoC4/ThermocoupleCalculator.c **** *
 488:Generated_Source\PSoC4/ThermocoupleCalculator.c **** * Parameters:
 489:Generated_Source\PSoC4/ThermocoupleCalculator.c **** *  int32 temperature : Temperature of the cold junction in 1/100 degree C
 490:Generated_Source\PSoC4/ThermocoupleCalculator.c **** *
 491:Generated_Source\PSoC4/ThermocoupleCalculator.c **** * Return:
 492:Generated_Source\PSoC4/ThermocoupleCalculator.c **** *  int32 : Expected voltage output of the thermocouple in microvolts
 493:Generated_Source\PSoC4/ThermocoupleCalculator.c **** *
 494:Generated_Source\PSoC4/ThermocoupleCalculator.c **** *******************************************************************************/
 495:Generated_Source\PSoC4/ThermocoupleCalculator.c **** int32 ThermocoupleCalculator_GetVoltage(int32 temperature) 
 496:Generated_Source\PSoC4/ThermocoupleCalculator.c **** 
 497:Generated_Source\PSoC4/ThermocoupleCalculator.c **** #if (CY_PSOC3)
 498:Generated_Source\PSoC4/ThermocoupleCalculator.c **** {
 499:Generated_Source\PSoC4/ThermocoupleCalculator.c **** 
 500:Generated_Source\PSoC4/ThermocoupleCalculator.c ****     /***************************************
 501:Generated_Source\PSoC4/ThermocoupleCalculator.c ****     *  Customizer Generated Coefficients
 502:Generated_Source\PSoC4/ThermocoupleCalculator.c ****     ***************************************/
 503:Generated_Source\PSoC4/ThermocoupleCalculator.c ****     const int32 CYCODE ThermocoupleCalculator_coeffTV[9] = {0, 
 504:Generated_Source\PSoC4/ThermocoupleCalculator.c ****                                                         413735, 
 505:Generated_Source\PSoC4/ThermocoupleCalculator.c ****                                                         83372, 
 506:Generated_Source\PSoC4/ThermocoupleCalculator.c ****                                                         -137607, 
 507:Generated_Source\PSoC4/ThermocoupleCalculator.c ****                                                         1089544, 
 508:Generated_Source\PSoC4/ThermocoupleCalculator.c ****                                                         -9978037, 
 509:Generated_Source\PSoC4/ThermocoupleCalculator.c ****                                                         43567176, 
 510:Generated_Source\PSoC4/ThermocoupleCalculator.c ****                                                         -95708775, 
 511:Generated_Source\PSoC4/ThermocoupleCalculator.c ****                                                         84037362};
 512:Generated_Source\PSoC4/ThermocoupleCalculator.c **** 
 513:Generated_Source\PSoC4/ThermocoupleCalculator.c ****     /* Variable to store calculated voltage */
 514:Generated_Source\PSoC4/ThermocoupleCalculator.c ****     uint8 i=0u;
 515:Generated_Source\PSoC4/ThermocoupleCalculator.c ****     float32 voltage=0.0f;
 516:Generated_Source\PSoC4/ThermocoupleCalculator.c ****     float32 temperatureNorm=0.0f;
 517:Generated_Source\PSoC4/ThermocoupleCalculator.c **** 
 518:Generated_Source\PSoC4/ThermocoupleCalculator.c ****     temperatureNorm  = (float32)temperature;
 519:Generated_Source\PSoC4/ThermocoupleCalculator.c **** 
 520:Generated_Source\PSoC4/ThermocoupleCalculator.c ****     for (i = ThermocoupleCalculator_ORDER_TV - 1u; i > 0u; i--)
 521:Generated_Source\PSoC4/ThermocoupleCalculator.c ****     {
 522:Generated_Source\PSoC4/ThermocoupleCalculator.c ****         voltage = (ThermocoupleCalculator_coeffTV[i] + voltage) * temperatureNorm;
ARM GAS  C:\Users\freem\AppData\Local\Temp\ccCqoMXZ.s 			page 16


 523:Generated_Source\PSoC4/ThermocoupleCalculator.c ****     }
 524:Generated_Source\PSoC4/ThermocoupleCalculator.c ****     voltage = (voltage + ThermocoupleCalculator_coeffTV[ThermocoupleCalculator_FIRST_EL_MAS]);
 525:Generated_Source\PSoC4/ThermocoupleCalculator.c **** 
 526:Generated_Source\PSoC4/ThermocoupleCalculator.c ****     return ((int32) (voltage));
 527:Generated_Source\PSoC4/ThermocoupleCalculator.c **** }
 528:Generated_Source\PSoC4/ThermocoupleCalculator.c **** #else
 529:Generated_Source\PSoC4/ThermocoupleCalculator.c **** {
 325              		.loc 1 529 0
 326              		.cfi_startproc
 327              		@ args = 0, pretend = 0, frame = 40
 328              		@ frame_needed = 0, uses_anonymous_args = 0
 329              	.LVL57:
 330 0000 30B5     		push	{r4, r5, lr}
 331              		.cfi_def_cfa_offset 12
 332              		.cfi_offset 4, -12
 333              		.cfi_offset 5, -8
 334              		.cfi_offset 14, -4
 335 0002 8BB0     		sub	sp, sp, #44
 336              		.cfi_def_cfa_offset 56
 530:Generated_Source\PSoC4/ThermocoupleCalculator.c **** 
 531:Generated_Source\PSoC4/ThermocoupleCalculator.c ****     /***************************************
 532:Generated_Source\PSoC4/ThermocoupleCalculator.c ****     *  Customizer Generated Coefficients
 533:Generated_Source\PSoC4/ThermocoupleCalculator.c ****     ***************************************/
 534:Generated_Source\PSoC4/ThermocoupleCalculator.c ****     const int32 CYCODE ThermocoupleCalculator_coeffTV[9] = {0, 
 337              		.loc 1 534 0
 338 0004 01A9     		add	r1, sp, #4
 339 0006 0A00     		movs	r2, r1
 340 0008 114B     		ldr	r3, .L28
 341 000a 4833     		adds	r3, r3, #72
 342 000c 32CB     		ldmia	r3!, {r1, r4, r5}
 343 000e 32C2     		stmia	r2!, {r1, r4, r5}
 344 0010 32CB     		ldmia	r3!, {r1, r4, r5}
 345 0012 32C2     		stmia	r2!, {r1, r4, r5}
 346 0014 32CB     		ldmia	r3!, {r1, r4, r5}
 347 0016 32C2     		stmia	r2!, {r1, r4, r5}
 348              	.LVL58:
 535:Generated_Source\PSoC4/ThermocoupleCalculator.c ****                                                         413735, 
 536:Generated_Source\PSoC4/ThermocoupleCalculator.c ****                                                         83372, 
 537:Generated_Source\PSoC4/ThermocoupleCalculator.c ****                                                         -137607, 
 538:Generated_Source\PSoC4/ThermocoupleCalculator.c ****                                                         1089544, 
 539:Generated_Source\PSoC4/ThermocoupleCalculator.c ****                                                         -9978037, 
 540:Generated_Source\PSoC4/ThermocoupleCalculator.c ****                                                         43567176, 
 541:Generated_Source\PSoC4/ThermocoupleCalculator.c ****                                                         -95708775, 
 542:Generated_Source\PSoC4/ThermocoupleCalculator.c ****                                                         84037362};
 543:Generated_Source\PSoC4/ThermocoupleCalculator.c **** 
 544:Generated_Source\PSoC4/ThermocoupleCalculator.c ****     /* Variable to store calculated voltage */
 545:Generated_Source\PSoC4/ThermocoupleCalculator.c ****     uint8 i=0u;
 546:Generated_Source\PSoC4/ThermocoupleCalculator.c ****     int32 voltage=0;
 547:Generated_Source\PSoC4/ThermocoupleCalculator.c **** 
 548:Generated_Source\PSoC4/ThermocoupleCalculator.c ****     if (temperature < 0)
 349              		.loc 1 548 0
 350 0018 0028     		cmp	r0, #0
 351 001a 03DA     		bge	.L24
 549:Generated_Source\PSoC4/ThermocoupleCalculator.c ****     {
 550:Generated_Source\PSoC4/ThermocoupleCalculator.c ****         temperature = -temperature;
 352              		.loc 1 550 0
 353 001c 4542     		rsbs	r5, r0, #0
ARM GAS  C:\Users\freem\AppData\Local\Temp\ccCqoMXZ.s 			page 17


 354              	.LVL59:
 551:Generated_Source\PSoC4/ThermocoupleCalculator.c ****         temperature = (int32)((uint64)((uint64)temperature << 
 355              		.loc 1 551 0
 356 001e 6D02     		lsls	r5, r5, #9
 357              	.LVL60:
 552:Generated_Source\PSoC4/ThermocoupleCalculator.c ****                                        (ThermocoupleCalculator_IN_NORMALIZATION_TV - ThermocoupleCa
 553:Generated_Source\PSoC4/ThermocoupleCalculator.c ****         temperature = -temperature;
 358              		.loc 1 553 0
 359 0020 6D42     		rsbs	r5, r5, #0
 360              	.LVL61:
 361 0022 00E0     		b	.L25
 362              	.LVL62:
 363              	.L24:
 554:Generated_Source\PSoC4/ThermocoupleCalculator.c ****     }
 555:Generated_Source\PSoC4/ThermocoupleCalculator.c ****     else
 556:Generated_Source\PSoC4/ThermocoupleCalculator.c ****     {
 557:Generated_Source\PSoC4/ThermocoupleCalculator.c ****         temperature = (int32)((uint64)((uint64)temperature << 
 364              		.loc 1 557 0
 365 0024 4502     		lsls	r5, r0, #9
 366              	.LVL63:
 367              	.L25:
 546:Generated_Source\PSoC4/ThermocoupleCalculator.c **** 
 368              		.loc 1 546 0
 369 0026 0020     		movs	r0, #0
 558:Generated_Source\PSoC4/ThermocoupleCalculator.c ****                                        (ThermocoupleCalculator_IN_NORMALIZATION_TV - ThermocoupleCa
 559:Generated_Source\PSoC4/ThermocoupleCalculator.c ****     }
 560:Generated_Source\PSoC4/ThermocoupleCalculator.c ****     
 561:Generated_Source\PSoC4/ThermocoupleCalculator.c ****     for (i = ThermocoupleCalculator_ORDER_TV - 1u; i > 0u; i--)
 370              		.loc 1 561 0
 371 0028 0824     		movs	r4, #8
 372 002a 08E0     		b	.L26
 373              	.LVL64:
 374              	.L27:
 562:Generated_Source\PSoC4/ThermocoupleCalculator.c ****     {
 563:Generated_Source\PSoC4/ThermocoupleCalculator.c ****         voltage = ThermocoupleCalculator_MultShift24((ThermocoupleCalculator_coeffTV[i] + voltage),
 375              		.loc 1 563 0 discriminator 3
 376 002c A200     		lsls	r2, r4, #2
 377 002e 01AB     		add	r3, sp, #4
 378 0030 D358     		ldr	r3, [r2, r3]
 379 0032 C018     		adds	r0, r0, r3
 380              	.LVL65:
 381 0034 2900     		movs	r1, r5
 382 0036 FFF7FEFF 		bl	ThermocoupleCalculator_MultShift24
 383              	.LVL66:
 561:Generated_Source\PSoC4/ThermocoupleCalculator.c ****     {
 384              		.loc 1 561 0 discriminator 3
 385 003a 013C     		subs	r4, r4, #1
 386              	.LVL67:
 387 003c E4B2     		uxtb	r4, r4
 388              	.LVL68:
 389              	.L26:
 561:Generated_Source\PSoC4/ThermocoupleCalculator.c ****     {
 390              		.loc 1 561 0 is_stmt 0 discriminator 1
 391 003e 002C     		cmp	r4, #0
 392 0040 F4D1     		bne	.L27
 564:Generated_Source\PSoC4/ThermocoupleCalculator.c ****     }
 565:Generated_Source\PSoC4/ThermocoupleCalculator.c **** 
ARM GAS  C:\Users\freem\AppData\Local\Temp\ccCqoMXZ.s 			page 18


 566:Generated_Source\PSoC4/ThermocoupleCalculator.c ****     voltage = (int32)((uint32)((uint64)(int32)(voltage + ThermocoupleCalculator_coeffTV[Thermocoupl
 393              		.loc 1 566 0 is_stmt 1
 394 0042 C317     		asrs	r3, r0, #31
 395 0044 DB06     		lsls	r3, r3, #27
 396 0046 4009     		lsrs	r0, r0, #5
 397              	.LVL69:
 398 0048 1843     		orrs	r0, r3
 399              	.LVL70:
 567:Generated_Source\PSoC4/ThermocoupleCalculator.c ****                                         ThermocoupleCalculator_COEF_SCALE_TV));
 568:Generated_Source\PSoC4/ThermocoupleCalculator.c **** 
 569:Generated_Source\PSoC4/ThermocoupleCalculator.c ****     return (voltage);
 570:Generated_Source\PSoC4/ThermocoupleCalculator.c **** }
 400              		.loc 1 570 0
 401 004a 0BB0     		add	sp, sp, #44
 402              		@ sp needed
 403              	.LVL71:
 404              	.LVL72:
 405 004c 30BD     		pop	{r4, r5, pc}
 406              	.L29:
 407 004e C046     		.align	2
 408              	.L28:
 409 0050 00000000 		.word	.LANCHOR0
 410              		.cfi_endproc
 411              	.LFE4:
 412              		.size	ThermocoupleCalculator_GetVoltage, .-ThermocoupleCalculator_GetVoltage
 413              		.section	.rodata
 414              		.align	2
 415              		.set	.LANCHOR0,. + 0
 416              	.LC0:
 417 0000 294D0A00 		.word	675113
 418 0004 A5A20800 		.word	565925
 419 0008 C7A52DFF 		.word	-13785657
 420 000c 2E925A15 		.word	358257198
 421 0010 A1896013 		.word	325093793
 422 0014 3BC2BE0E 		.word	247382587
 423 0018 C4121D05 		.word	85791428
 424 001c BB0963FF 		.word	-10286661
 425 0020 410F42F5 		.word	-180220095
 426 0024 66FCF10F 		.word	267517030
 427 0028 EBD37904 		.word	75092971
 428 002c E873170A 		.word	169309160
 429 0030 5C6E570E 		.word	240610908
 430 0034 F513FFF9 		.word	-100723723
 431 0038 4D6E84FB 		.word	-75207091
 432 003c 54085505 		.word	89458772
 433 0040 44993F02 		.word	37722436
 434 0044 E217D300 		.word	13834210
 435              	.LC1:
 436 0048 00000000 		.word	0
 437 004c 27500600 		.word	413735
 438 0050 AC450100 		.word	83372
 439 0054 79E6FDFF 		.word	-137607
 440 0058 08A01000 		.word	1089544
 441 005c 4BBF67FF 		.word	-9978037
 442 0060 48C89802 		.word	43567176
 443 0064 99994BFA 		.word	-95708775
 444 0068 F24E0205 		.word	84037362
ARM GAS  C:\Users\freem\AppData\Local\Temp\ccCqoMXZ.s 			page 19


 445              		.text
 446              	.Letext0:
 447              		.file 2 "Generated_Source\\PSoC4\\cytypes.h"